(dp0
S'class_sl'
p1
(dp2
S'0'
p3
(I0
I11
tp4
sS'30'
p5
(I11
I23
tp6
ssS'class_hierarchy'
p7
(dp8
g3
(lp9
S'0_subcl'
p10
asg5
(lp11
S'30_subcl'
p12
assS'feats'
p13
(dp14
S'Firmicutes__Clostridia__Lachnospirales__Lachnospiraceae__uncultured__Clostridium_sp___ASV590'
p15
(lp16
F0.0
aF0.0
aF0.0
aF0.0
aF0.0
aF175.52481920943643
aF0.0
aF0.0
aF0.0
aF291.21265804353584
aF318.92501009929214
aF246.0478563080519
aF0.0
aF0.0
aF0.0
aF185.97731076808617
aF202.69357236160565
aF0.0
aF241.38555307464844
aF0.0
aF0.0
aF0.0
aF0.0
asS'Firmicutes__Clostridia__Lachnospirales__Lachnospiraceae__Lachnospiraceae_NK4A136_group__uncultured_bacterium__ASV496'
p17
(lp18
F0.0
aF0.0
aF0.0
aF0.0
aF3579.571922426261
aF2281.8226497226715
aF0.0
aF0.0
aF0.0
aF0.0
aF0.0
aF2111.910766644109
aF157.35146022155075
aF2229.6544035674447
aF0.0
aF0.0
aF0.0
aF0.0
aF0.0
aF0.0
aF0.0
aF0.0
aF0.0
asS'Firmicutes__Clostridia__Lachnospirales__Lachnospiraceae__Lachnoclostridium__NA__ASV723'
p19
(lp20
F0.0
aF163.89860139860093
aF0.0
aF0.0
aF0.0
aF0.0
aF0.0
aF0.0
aF900.7318446237565
aF0.0
aF0.0
aF2378.4626109778387
aF0.0
aF126.68490929360502
aF0.0
aF418.4489492281941
aF0.0
aF0.0
aF1046.004063323474
aF0.0
aF0.0
aF113.86927806877694
aF0.0
asS'Firmicutes__Clostridia__Lachnospirales__Lachnospiraceae__NA__NA__ASV1421'
p21
(lp22
F0.0
aF109.26573426573394
aF0.0
aF0.0
aF0.0
aF0.0
aF0.0
aF0.0
aF150.12197410395942
aF97.07088601451208
aF0.0
aF0.0
aF0.0
aF0.0
aF0.0
aF0.0
aF0.0
aF0.0
aF0.0
aF0.0
aF81.5827044666531
aF0.0
aF70.79646017699113
asS'Firmicutes__Clostridia__Lachnospirales__Lachnospiraceae__Lachnospiraceae_UCG_001__uncultured_bacterium__ASV28'
p23
(lp24
F0.0
aF573.6451048951047
aF0.0
aF0.0
aF0.0
aF982.9389875728438
aF0.0
aF0.0
aF0.0
aF0.0
aF0.0
aF225.5438682823809
aF0.0
aF380.0547278808141
aF0.0
aF0.0
aF0.0
aF0.0
aF0.0
aF0.0
aF693.4529879665517
aF0.0
aF0.0
asS'Firmicutes__Clostridia__Lachnospirales__Lachnospiraceae__Lachnospiraceae_UCG_001__uncultured_bacterium__ASV1244'
p25
(lp26
F0.0
aF2103.3653846153793
aF909.7002776979793
aF0.0
aF2182.0678157256025
aF1930.7730113037967
aF5523.336095001385
aF3351.5562759264863
aF1013.3233252017257
aF7935.54493168636
aF1063.083366997637
aF4121.301593159868
aF1604.9848942598182
aF1950.9476031215181
aF1539.6458814472633
aF232.47163846010798
aF0.0
aF0.0
aF0.0
aF290.8602751985685
aF815.8270446665309
aF313.14051468913726
aF825.9587020648964
asS'Firmicutes__Clostridia__Lachnospirales__Lachnospiraceae__Roseburia__uncultured_bacterium__ASV467'
p27
(lp28
F1838.3266259253749
aF327.79720279720283
aF813.9423537297707
aF622.8346763206044
aF0.0
aF491.4694937864219
aF1882.9554869322876
aF549.4354550699154
aF450.36592231187825
aF0.0
aF3082.9417642931517
aF2604.006479260219
aF346.17321248741223
aF0.0
aF1486.5546441559818
aF674.167751534313
aF225.2150804017836
aF219.15940193834274
aF925.3112867861527
aF2550.6208748182103
aF1366.5102998164361
aF2135.048963789571
aF330.3834808259582
asS'Firmicutes__Bacilli__Lactobacillales__Lactobacillaceae__Lactobacillus__Lactobacillus_reuteri__ASV782'
p29
(lp30
F0.0
aF0.0
aF0.0
aF0.0
aF0.0
aF105.31489152566147
aF3188.4712912053474
aF247.24595478146242
aF450.36592231187825
aF0.0
aF765.4200242382999
aF7319.923725164537
aF1479.1037260825753
aF101.34792743488421
aF3796.0234663268816
aF8485.214803793931
aF270.2580964821405
aF4602.347440705202
aF40.23092551244147
aF6667.4124622441
aF0.0
aF3672.2842177180632
aF11752.212389380566
asS'Firmicutes__Clostridia__Lachnospirales__Lachnospiraceae__Roseburia__uncultured_bacterium__ASV320'
p31
(lp32
F819.7943061559113
aF628.2779720279717
aF0.0
aF895.3248472108688
aF588.4227817687014
aF0.0
aF0.0
aF0.0
aF1013.3233252017257
aF97.07088601451208
aF956.7750302978753
aF738.1435689241556
aF0.0
aF0.0
aF0.0
aF464.94327692021596
aF923.3818296473135
aF438.3188038766865
aF1528.7751694727788
aF0.0
aF244.74811339995955
aF0.0
aF0.0
asS'Firmicutes__Clostridia__Clostridia_vadinBB60_group__Clostridia_vadinBB60_group__Clostridia_vadinBB60_group__NA__ASV1181'
p33
(lp34
F0.0
aF464.3793706293708
aF766.0633917456663
aF0.0
aF588.4227817687014
aF0.0
aF150.6364389545834
aF0.0
aF0.0
aF242.67721503628067
aF978.0366976378284
aF123.02392815402595
aF1447.6334340382646
aF0.0
aF0.0
aF0.0
aF0.0
aF0.0
aF0.0
aF156.61707126076797
aF0.0
aF0.0
aF0.0
asS'Bacteroidota__Bacteroidia__Bacteroidales__Muribaculaceae__Muribaculaceae__NA__ASV106'
p35
(lp36
F347.7915238237201
aF0.0
aF287.273771904625
aF233.5630036202272
aF0.0
aF8670.926068946152
aF7682.458386683745
aF0.0
aF3039.969975605177
aF82146.23728978087
aF4231.0718006506
aF512.5997006417748
aF0.0
aF152.02189115232582
aF0.0
aF395.20178538218323
aF180.1720643214267
aF6940.047728047531
aF160.9237020497653
aF1610.9184472536065
aF12828.880277381242
aF7970.849464814395
aF6820.0589970501405
asS'Firmicutes__Clostridia__Oscillospirales__Oscillospiraceae__Oscillibacter__uncultured_bacterium__ASV581'
p37
(lp38
F0.0
aF0.0
aF0.0
aF1673.8681926116215
aF784.5637090249343
aF1369.0935898336031
aF0.0
aF0.0
aF3227.6224432351287
aF679.4962021015849
aF0.0
aF0.0
aF0.0
aF557.4136008918617
aF0.0
aF674.167751534313
aF0.0
aF0.0
aF1448.3133184478945
aF0.0
aF1407.3016520497642
aF1281.0293782737465
aF377.58112094395307
asS'Firmicutes__Clostridia__Oscillospirales__Ruminococcaceae__uncultured__uncultured_bacterium__ASV735'
p39
(lp40
F695.5830476474393
aF792.1765734265725
aF0.0
aF428.19883997041535
aF612.9403976757297
aF0.0
aF903.8186337274985
aF0.0
aF750.6098705197971
aF994.9765816487487
aF1530.8400484766019
aF881.6714851038527
aF377.643504531722
aF608.0875646093033
aF0.0
aF0.0
aF495.47317688392417
aF779.2334291141085
aF382.1937923681937
aF648.8421523660373
aF305.93514174994874
aF0.0
aF0.0
asS'Bacteroidota__Bacteroidia__Bacteroidales__Muribaculaceae__Muribaculaceae__uncultured_bacterium__ASV1023'
p41
(lp42
F0.0
aF52966.564685314675
aF24298.573206932906
aF544.9803417805294
aF0.0
aF0.0
aF0.0
aF0.0
aF0.0
aF0.0
aF0.0
aF0.0
aF0.0
aF0.0
aF0.0
aF0.0
aF0.0
aF0.0
aF0.0
aF0.0
aF0.0
aF0.0
aF0.0
asS'Firmicutes__Clostridia__Lachnospirales__Lachnospiraceae__Lachnoclostridium__NA__ASV224'
p43
(lp44
F273.26476871863673
aF1584.3531468531494
aF311.21325289667664
aF1634.9410253415913
aF1863.3388089342152
aF0.0
aF401.6971705455551
aF0.0
aF0.0
aF2766.5202514135935
aF0.0
aF1927.3748744130692
aF0.0
aF380.0547278808141
aF345.0930423933527
aF697.4149153803238
aF0.0
aF0.0
aF583.3484199304011
aF0.0
aF652.6616357332246
aF0.0
aF353.98230088495563
asS'Firmicutes__Clostridia__Clostridia_vadinBB60_group__Clostridia_vadinBB60_group__Clostridia_vadinBB60_group__unidentified__ASV371'
p45
(lp46
F0.0
aF0.0
aF0.0
aF0.0
aF588.4227817687014
aF0.0
aF0.0
aF0.0
aF0.0
aF970.7088601451208
aF1169.391703697407
aF0.0
aF0.0
aF658.761528326745
aF0.0
aF0.0
aF0.0
aF0.0
aF1247.1586908856843
aF0.0
aF0.0
aF0.0
aF0.0
asS'Firmicutes__Clostridia__Oscillospirales__Oscillospiraceae__Colidextribacter__NA__ASV1057'
p47
(lp48
F3229.4927212202533
aF3633.0856643356583
aF0.0
aF1985.2855307719317
aF0.0
aF0.0
aF0.0
aF0.0
aF0.0
aF3591.622782536942
aF3848.3617885314575
aF779.1515449754976
aF0.0
aF0.0
aF0.0
aF0.0
aF1171.11841808928
aF803.5844737739244
aF0.0
aF1051.5717641794408
aF1162.553538649806
aF0.0
aF0.0
asS'Bacteroidota__Bacteroidia__Bacteroidales__Muribaculaceae__Muribaculaceae__NA__ASV245'
p49
(lp50
F124.21125850847098
aF273.1643356643359
aF0.0
aF155.7086690801511
aF294.2113908843507
aF0.0
aF0.0
aF0.0
aF0.0
aF0.0
aF0.0
aF184.5358922310389
aF0.0
aF0.0
aF0.0
aF209.22447461409706
aF135.12904824106977
aF146.10626795889516
aF0.0
aF156.61707126076797
aF0.0
aF0.0
aF117.99410029498522
asS'Proteobacteria__Gammaproteobacteria__Enterobacterales__Morganellaceae__Proteus__NA__ASV1070'
p51
(lp52
F3726.3377552541397
aF0.0
aF0.0
aF0.0
aF784.5637090249343
aF0.0
aF0.0
aF0.0
aF0.0
aF169.87405052539646
aF0.0
aF0.0
aF251.762336354481
aF532.07661903314
aF0.0
aF325.46029384415056
aF0.0
aF170.45731261871103
aF3942.6307002192634
aF0.0
aF0.0
aF199.27123662036036
aF401.17994100294953
asS'Bacteroidota__Bacteroidia__Bacteroidales__Muribaculaceae__Muribaculaceae__uncultured_bacterium__ASV1200'
p53
(lp54
F0.0
aF0.0
aF7038.207411663314
aF25691.93039822492
aF8066.295633412606
aF7968.826792108403
aF16344.053626572226
aF0.0
aF6642.897354100209
aF6503.74936297231
aF6782.471881444933
aF0.0
aF0.0
aF0.0
aF0.0
aF0.0
aF0.0
aF7378.366531924214
aF0.0
aF12193.757691016866
aF4119.926575565978
aF4896.37895695741
aF5356.932153392329
asS'Firmicutes__Clostridia__Lachnospirales__Lachnospiraceae__Lachnospiraceae_NK4A136_group__NA__ASV1247'
p55
(lp56
F48939.2358523377
aF14149.912587412593
aF28272.527051613488
aF14325.19755537391
aF1789.7859612131306
aF6705.048093800469
aF10795.611458411795
aF35493.53039751651
aF3227.6224432351287
aF2426.7721503628068
aF15117.045478706455
aF5043.981054315057
aF17812.185297079504
aF3217.7966960575686
aF9290.966525974882
aF1580.8071415287288
aF30629.250934642605
aF3798.7629669312805
aF9615.191197473505
aF9374.650408323085
aF2365.8984295329396
aF1964.245046686404
aF2029.4985250737502
asS'Bacteroidota__Bacteroidia__Bacteroidales__Bacteroidaceae__Bacteroides__Bacteroides_acidifaciens__ASV711'
p57
(lp58
F124.21125850847098
aF491.6958041958038
aF191.51584793641635
aF272.4901708902642
aF196.14092725623382
aF280.8397107350979
aF200.84858527277754
aF137.35886376747933
aF0.0
aF242.67721503628067
aF148.8316713796696
aF369.0717844620778
aF0.0
aF202.69585486976743
aF106.18247458256998
aF278.96596615212974
aF0.0
aF267.8614912579745
aF0.0
aF469.8512137823029
aF285.53946563328566
aF455.4771122751087
aF283.1858407079643
asS'Firmicutes__Clostridia__Clostridia_vadinBB60_group__Clostridia_vadinBB60_group__Clostridia_vadinBB60_group__uncultured_bacterium__ASV1240'
p59
(lp60
F0.0
aF0.0
aF0.0
aF0.0
aF0.0
aF0.0
aF0.0
aF0.0
aF6342.653405892282
aF2305.4335428446666
aF0.0
aF0.0
aF0.0
aF12263.099219620963
aF0.0
aF0.0
aF0.0
aF0.0
aF0.0
aF0.0
aF0.0
aF0.0
aF0.0
asS'Bacteroidota__Bacteroidia__Bacteroidales__Muribaculaceae__Muribaculaceae__uncultured_Bacteroidales__ASV113'
p61
(lp62
F0.0
aF8003.715034965027
aF5841.2333620607105
aF0.0
aF26405.47233187047
aF8354.981394369164
aF0.0
aF16647.894288618416
aF9082.379433289552
aF8566.505690780685
aF18816.57559585818
aF16341.678456459791
aF4279.959718026182
aF0.0
aF0.0
aF8950.158080714149
aF5427.683437682991
aF3823.114011591092
aF0.0
aF14945.743371741828
aF22312.8696716296
aF3757.6861762696412
aF8047.197640117987
asS'Firmicutes__Clostridia__Peptococcales__Peptococcaceae__uncultured__unidentified__ASV441'
p63
(lp64
F0.0
aF1174.6066433566396
aF0.0
aF0.0
aF882.6341726530512
aF912.7290598890686
aF326.3789510682634
aF0.0
aF375.30493525989857
aF1504.5987332249322
aF1063.083366997637
aF0.0
aF0.0
aF0.0
aF0.0
aF0.0
aF585.559209044638
aF316.56358057760616
aF1709.8143342787632
aF783.0853563038378
aF0.0
aF0.0
aF0.0
asS'Firmicutes__Clostridia__Lachnospirales__Lachnospiraceae__NA__NA__ASV68'
p65
(lp66
F0.0
aF491.6958041958038
aF0.0
aF0.0
aF711.0108613038465
aF0.0
aF0.0
aF549.4354550699154
aF0.0
aF0.0
aF0.0
aF697.1355928728136
aF629.405840886203
aF760.1094557616292
aF0.0
aF371.95462153617234
aF0.0
aF0.0
aF0.0
aF0.0
aF0.0
aF0.0
aF0.0
asS'Firmicutes__Clostridia__Oscillospirales__Oscillospiraceae__NA__NA__ASV773'
p67
(lp68
F0.0
aF0.0
aF0.0
aF0.0
aF0.0
aF0.0
aF0.0
aF0.0
aF1050.853818727714
aF533.8898730798164
aF489.01834881891364
aF0.0
aF440.58408862034247
aF0.0
aF318.5474237477099
aF0.0
aF0.0
aF0.0
aF643.6948081990631
aF0.0
aF713.8486640832147
aF512.4117513094967
aF165.1917404129791
asS'Proteobacteria__Gammaproteobacteria__Burkholderiales__Sutterellaceae__Parasutterella__uncultured_bacterium__ASV1079'
p69
(lp70
F0.0
aF0.0
aF0.0
aF0.0
aF0.0
aF0.0
aF0.0
aF0.0
aF0.0
aF72.8031645108841
aF0.0
aF102.51994012835496
aF0.0
aF0.0
aF0.0
aF46.49432769202159
aF0.0
aF73.05313397944768
aF0.0
aF156.61707126076797
aF61.18702834998985
aF0.0
aF70.79646017699113
asS'Firmicutes__Bacilli__Lactobacillales__Enterococcaceae__Enterococcus__NA__ASV748'
p71
(lp72
F8421.523326874361
aF0.0
aF0.0
aF0.0
aF0.0
aF0.0
aF0.0
aF0.0
aF0.0
aF0.0
aF0.0
aF82.01595210268395
aF0.0
aF0.0
aF0.0
aF0.0
aF0.0
aF97.40417863926355
aF643.6948081990631
aF0.0
aF61.18702834998985
aF0.0
aF70.79646017699113
asS'Bacteroidota__Bacteroidia__Bacteroidales__Muribaculaceae__Muribaculaceae__uncultured_Bacteroidales__ASV1103'
p73
(lp74
F0.0
aF0.0
aF0.0
aF0.0
aF0.0
aF4563.645299445343
aF225.95465843187512
aF0.0
aF1613.8112216175593
aF3979.9063265949967
aF5251.631832968342
aF8058.067294088696
aF2077.0392749244693
aF0.0
aF185.81933051949724
aF7322.856611493397
aF2477.3658844196257
aF4845.857887303361
aF0.0
aF4273.408658686654
aF2896.1860085661847
aF9650.421316328855
aF4814.159292035399
asS'Firmicutes__Clostridia__Oscillospirales__Oscillospiraceae__uncultured__NA__ASV606'
p75
(lp76
F2409.69841506434
aF546.3286713286708
aF1029.3976826582348
aF3581.299388843473
aF392.28185451246765
aF0.0
aF1782.5311942959054
aF879.0967281118645
aF0.0
aF509.62215157618846
aF1105.606701677543
aF758.6475569498266
aF912.6384692849947
aF0.0
aF1353.826550927773
aF371.95462153617234
aF0.0
aF0.0
aF1126.465914348358
aF335.60800984450236
aF183.56108504996945
aF0.0
aF424.7787610619469
asS'Firmicutes__Bacilli__RF39__RF39__RF39__NA__ASV769'
p77
(lp78
F7229.095245193031
aF2840.9090909090887
aF1316.6714545628665
aF506.05317451049143
aF8532.130335646163
aF772.3092045215197
aF1230.1975847957629
aF0.0
aF1088.3843122537023
aF0.0
aF0.0
aF2542.494515183199
aF0.0
aF0.0
aF0.0
aF0.0
aF1621.5485788928393
aF1217.552232990793
aF2554.6637700400265
aF0.0
aF3365.286559249443
aF0.0
aF0.0
asS'Firmicutes__Clostridia__Lachnospirales__Lachnospiraceae__NA__NA__ASV33'
p79
(lp80
F770.1098027525227
aF355.1136363636358
aF574.54754380925
aF0.0
aF0.0
aF280.8397107350979
aF0.0
aF164.83063652097462
aF0.0
aF0.0
aF318.92501009929214
aF0.0
aF566.4652567975835
aF0.0
aF0.0
aF0.0
aF135.12904824106977
aF0.0
aF0.0
aF0.0
aF203.9567611666325
aF0.0
aF0.0
asS'Bacteroidota__Bacteroidia__Bacteroidales__Muribaculaceae__Muribaculaceae__uncultured_Bacteroidales__ASV1347'
p81
(lp82
F0.0
aF0.0
aF0.0
aF0.0
aF0.0
aF1895.6680474619102
aF0.0
aF0.0
aF0.0
aF2353.9689858519146
aF2551.400080794333
aF3260.1340960816883
aF1038.5196374622346
aF0.0
aF0.0
aF3626.5575599776857
aF1148.596910049099
aF2459.455510641408
aF0.0
aF2528.247007495247
aF1448.0930042830923
aF4896.37895695741
aF2572.271386430681
asS'Firmicutes__Clostridia__Oscillospirales__Oscillospiraceae__Colidextribacter__NA__ASV415'
p83
(lp84
F5614.348884582904
aF3660.4020979020984
aF2681.2218711098285
aF1790.6496944217415
aF1201.3631794444332
aF2913.7119988766385
aF4795.259973387563
aF4505.370731573312
aF1388.6282604616292
aF2014.2208848011276
aF3614.4834477919703
aF3711.221832646448
aF1793.806646525683
aF1064.15323806628
aF1805.1020679036908
aF953.1337176864417
aF1058.5108778883853
aF0.0
aF4747.249210468085
aF1901.778722452181
aF1652.049765449723
aF2106.5816442723717
aF542.7728613569321
asS'Firmicutes__Clostridia__Oscillospirales__Oscillospiraceae__Colidextribacter__NA__ASV701'
p85
(lp86
F1664.4308640135162
aF0.0
aF526.6685818251457
aF0.0
aF0.0
aF0.0
aF753.1821947729161
aF0.0
aF0.0
aF0.0
aF0.0
aF963.6874372065365
aF1038.5196374622346
aF0.0
aF0.0
aF0.0
aF788.2527814062427
aF0.0
aF724.1566592239453
aF0.0
aF0.0
aF0.0
aF0.0
asS'Firmicutes__Clostridia__Lachnospirales__Lachnospiraceae__NA__NA__ASV806'
p87
(lp88
F5887.6136533015415
aF12019.230769230793
aF2058.7953653164795
aF3698.0808906535926
aF4143.47708828794
aF1509.5134452011491
aF803.3943410911102
aF0.0
aF2964.9089885532003
aF1868.6145557793532
aF2657.708417494093
aF3157.6141559533285
aF0.0
aF253.36981858721003
aF0.0
aF1929.5145992188975
aF698.1667492455298
aF146.10626795889516
aF0.0
aF0.0
aF1040.1794819498314
aF0.0
aF519.1740412979348
asS'Firmicutes__Clostridia__Clostridia_vadinBB60_group__Clostridia_vadinBB60_group__Clostridia_vadinBB60_group__unidentified__ASV110'
p89
(lp90
F3726.3377552541397
aF14313.811188811194
aF1603.9452264674885
aF13468.799875433111
aF32780.05246769801
aF6810.362985326129
aF0.0
aF1181.2862284003174
aF8219.17808219178
aF10338.049360545534
aF4422.426806710182
aF5433.556826802807
aF0.0
aF20852.336069727346
aF0.0
aF604.4262599962804
aF4414.215575874958
aF1168.8501436711595
aF8106.531490756954
aF0.0
aF0.0
aF0.0
aF1817.1091445427728
asS'Firmicutes__Clostridia__Lachnospirales__Lachnospiraceae__uncultured__uncultured_bacterium__ASV436'
p91
(lp92
F0.0
aF0.0
aF215.455328928469
aF428.19883997041535
aF318.7290067913799
aF0.0
aF627.6518289774292
aF0.0
aF0.0
aF315.48037954716386
aF999.2983649777813
aF799.6555330011687
aF377.643504531722
aF0.0
aF0.0
aF0.0
aF765.7312733660647
aF340.91462523742206
aF744.2721219801664
aF604.0944177201035
aF591.4746073832354
aF284.67319517194284
aF0.0
asS'Firmicutes__Clostridia__Clostridia_vadinBB60_group__Clostridia_vadinBB60_group__Clostridia_vadinBB60_group__unidentified__ASV1077'
p93
(lp94
F5092.661598847328
aF0.0
aF2202.4322512687954
aF9070.029973918807
aF12528.501728491934
aF2703.0822158253195
aF3866.3352665009675
aF12197.467102552166
aF0.0
aF9294.537335889527
aF4316.118470010412
aF574.1116647187878
aF1101.4602215508562
aF0.0
aF0.0
aF0.0
aF2657.5379487410432
aF1461.0626795889518
aF2635.125621064911
aF581.720550397137
aF1754.0281460330382
aF1565.7025734456815
aF1533.9233038348038
asS'Firmicutes__Clostridia__Oscillospirales__Oscillospiraceae__UCG_005__NA__ASV938'
p95
(lp96
F0.0
aF0.0
aF0.0
aF1206.742185371171
aF490.3523181405845
aF0.0
aF828.5004142502067
aF0.0
aF0.0
aF169.87405052539646
aF1169.391703697407
aF430.58374853909083
aF2014.098690835848
aF304.04378230465164
aF0.0
aF0.0
aF0.0
aF97.40417863926355
aF201.15462756220737
aF0.0
aF1774.4238221497071
aF0.0
aF94.39528023598817
asS'Firmicutes__Clostridia__Lachnospirales__Lachnospiraceae__Lachnospiraceae_UCG_006__uncultured_bacterium__ASV407'
p97
(lp98
F0.0
aF0.0
aF0.0
aF0.0
aF0.0
aF0.0
aF376.59109738645753
aF247.24595478146242
aF0.0
aF0.0
aF595.3266855186783
aF0.0
aF346.17321248741223
aF0.0
aF0.0
aF302.21312999814063
aF2117.0217557767705
aF1631.5199922076647
aF160.9237020497653
aF0.0
aF142.76973281664334
aF0.0
aF259.58702064896784
asS'Bacteroidota__Bacteroidia__Bacteroidales__Rikenellaceae__Rikenellaceae_RC9_gut_group__uncultured_organism__ASV1029'
p99
(lp100
F0.0
aF163.89860139860093
aF0.0
aF0.0
aF0.0
aF0.0
aF100.42429263638827
aF0.0
aF0.0
aF0.0
aF0.0
aF266.5518443337229
aF0.0
aF76.01094557616291
aF0.0
aF0.0
aF0.0
aF0.0
aF0.0
aF0.0
aF0.0
aF142.33659758597142
aF0.0
asS'Proteobacteria__Gammaproteobacteria__Enterobacterales__Enterobacteriaceae__NA__NA__ASV1297'
p101
(lp102
F0.0
aF0.0
aF0.0
aF0.0
aF0.0
aF70.20992768377448
aF0.0
aF0.0
aF0.0
aF145.6063290217684
aF0.0
aF0.0
aF0.0
aF430.72869159825666
aF0.0
aF162.73014692207528
aF180.1720643214267
aF0.0
aF0.0
aF67.12160196890036
aF0.0
aF0.0
aF0.0
asS'Bacteroidota__Bacteroidia__Bacteroidales__Rikenellaceae__Alistipes__uncultured_bacterium__ASV945'
p103
(lp104
F0.0
aF9451.486013986007
aF2322.1296562290486
aF0.0
aF0.0
aF1895.6680474619102
aF8410.534508297556
aF384.6048185489407
aF11409.27003190088
aF5071.95379425826
aF2296.2600727148974
aF7812.0194377806465
aF5003.776435045319
aF0.0
aF929.0966525974881
aF6021.0154361167915
aF315.30111256249745
aF0.0
aF11224.428217971188
aF156.61707126076797
aF0.0
aF0.0
aF1864.3067846607678
asS'Firmicutes__Clostridia__Clostridia_vadinBB60_group__Clostridia_vadinBB60_group__Clostridia_vadinBB60_group__uncultured_bacterium__ASV864'
p105
(lp106
F124.21125850847098
aF764.8601398601396
aF0.0
aF389.2716727003783
aF0.0
aF0.0
aF552.3336095001386
aF0.0
aF0.0
aF558.1575945834446
aF361.448344779197
aF328.0638084107358
aF283.23262839879175
aF278.70680044593087
aF79.63685593692753
aF0.0
aF0.0
aF0.0
aF160.9237020497653
aF89.4954692918672
aF0.0
aF199.27123662036036
aF0.0
asS'Firmicutes__Clostridia__Clostridia_vadinBB60_group__Clostridia_vadinBB60_group__Clostridia_vadinBB60_group__uncultured_bacterium__ASV435'
p107
(lp108
F1192.4280816813202
aF409.74650349650284
aF526.6685818251457
aF700.6890108606806
aF1299.433643072546
aF175.52481920943643
aF100.42429263638827
aF0.0
aF0.0
aF0.0
aF0.0
aF0.0
aF0.0
aF202.69585486976743
aF0.0
aF0.0
aF270.2580964821405
aF0.0
aF643.6948081990631
aF0.0
aF0.0
aF0.0
aF0.0
asS'Firmicutes__Clostridia__Oscillospirales__Oscillospiraceae__uncultured__uncultured_bacterium__ASV725'
p109
(lp110
F4521.2898097083535
aF8522.727272727267
aF0.0
aF7084.744443146876
aF7232.696692573617
aF2106.2978305132397
aF4694.835680751171
aF10219.499464300423
aF8144.117095139803
aF4829.27657922198
aF2764.016754193862
aF2152.918742695449
aF1101.4602215508562
aF4332.623897841286
aF1752.010830612409
aF2045.7504184489467
aF1328.7689743705266
aF949.6907417328196
aF9132.420091324202
aF0.0
aF1652.049765449723
aF967.8888635846054
aF943.9528023598817
asS'Bacteroidota__Bacteroidia__Bacteroidales__Muribaculaceae__Muribaculaceae__uncultured_bacterium__ASV713'
p111
(lp112
F496.8450340338859
aF819.4930069930066
aF191.51584793641635
aF0.0
aF171.62331134920458
aF12743.101874605056
aF1305.5158042730498
aF0.0
aF5929.817977106401
aF16793.263280510615
aF26045.54249144218
aF574.1116647187878
aF0.0
aF202.69585486976743
aF530.9123729128509
aF0.0
aF427.9086527633893
aF12979.106803681832
aF140.80823929354526
aF11880.523548495397
aF509.8919029165822
aF44266.681849237044
aF23079.64601769914
asS'Firmicutes__Clostridia__Clostridia_vadinBB60_group__Clostridia_vadinBB60_group__Clostridia_vadinBB60_group__unidentified__ASV362'
p113
(lp114
F0.0
aF1447.7709790209794
aF0.0
aF0.0
aF711.0108613038465
aF0.0
aF0.0
aF467.02013680942855
aF0.0
aF0.0
aF0.0
aF0.0
aF975.5790533736152
aF0.0
aF0.0
aF0.0
aF0.0
aF0.0
aF0.0
aF0.0
aF0.0
aF0.0
aF0.0
asS'Firmicutes__Bacilli__Erysipelotrichales__Erysipelotrichaceae__Dubosiella__uncultured_bacterium__ASV3'
p115
(lp116
F1639.5886123118264
aF2103.3653846153793
aF7900.02872737719
aF13390.945540893012
aF13999.558682913628
aF11970.792670083512
aF8184.579849865685
aF4285.596549545344
aF10245.82473259521
aF3761.4968330623406
aF9525.226968298848
aF3813.7417727747984
aF15326.032225579076
aF14796.797405493044
aF19006.66295028003
aF16040.543053747408
aF8085.221386424036
aF6988.749817367165
aF3459.8595940699583
aF16892.269828839882
aF18825.209055680203
aF5095.650193577778
aF17132.74336283182
asS'Bacteroidota__Bacteroidia__Bacteroidales__Muribaculaceae__Muribaculaceae__NA__ASV1330'
p117
(lp118
F0.0
aF382.4300699300698
aF0.0
aF0.0
aF0.0
aF3510.496384188729
aF2535.7133890688124
aF0.0
aF1163.445299305689
aF30820.006309607565
aF1700.9333871962253
aF0.0
aF0.0
aF0.0
aF0.0
aF0.0
aF0.0
aF2654.2638679199326
aF0.0
aF581.720550397137
aF5037.732000815826
aF2220.450922341149
aF3209.4395280236017
asS'Firmicutes__Clostridia__Lachnospirales__Lachnospiraceae__Eubacterium_xylanophilum_group__uncultured_bacterium__ASV59'
p119
(lp120
F1217.27033338302
aF0.0
aF0.0
aF0.0
aF0.0
aF0.0
aF0.0
aF0.0
aF0.0
aF0.0
aF1679.6717198562674
aF0.0
aF0.0
aF912.131346913955
aF0.0
aF2836.153989213311
aF0.0
aF0.0
aF5813.3687365477845
aF0.0
aF0.0
aF683.2156684126626
aF0.0
asS'Firmicutes__Clostridia__Lachnospirales__Lachnospiraceae__Lachnospiraceae_NK4A136_group__NA__ASV978'
p121
(lp122
F0.0
aF13139.204545454495
aF0.0
aF1518.1595235314712
aF416.79947041949686
aF3405.1814926630595
aF0.0
aF0.0
aF938.2623381497468
aF7984.080374693619
aF0.0
aF0.0
aF0.0
aF886.7943650552343
aF0.0
aF999.6280453784635
aF0.0
aF0.0
aF181.03916480598633
aF134.24320393780053
aF1509.2800326330796
aF0.0
aF306.78466076696174
asS'Bacteroidota__Bacteroidia__Bacteroidales__Muribaculaceae__Muribaculaceae__uncultured_bacterium__ASV620'
p123
(lp124
F0.0
aF0.0
aF13382.16987455715
aF48620.031920277244
aF18216.588618922702
aF16078.073439584374
aF35048.078130099675
aF494.49190956292375
aF12497.654344154613
aF12740.553789404736
aF14691.812131907398
aF0.0
aF0.0
aF0.0
aF0.0
aF1232.0996838385704
aF0.0
aF15998.636341499083
aF0.0
aF24029.533504866296
aF8484.601264531924
aF11130.721931222988
aF10902.654867256679
asS'Firmicutes__Clostridia__Lachnospirales__Lachnospiraceae__uncultured__NA__ASV1407'
p125
(lp126
F298.10702042033154
aF0.0
aF71.81844297615619
aF0.0
aF0.0
aF0.0
aF0.0
aF247.24595478146242
aF0.0
aF0.0
aF212.61667339952743
aF246.0478563080519
aF188.8217522658605
aF0.0
aF0.0
aF0.0
aF0.0
aF0.0
aF201.15462756220737
aF0.0
aF163.1654089333064
aF0.0
aF0.0
asS'Firmicutes__Clostridia__Oscillospirales__Ruminococcaceae__uncultured__NA__ASV1406'
p127
(lp128
F372.63377552541397
aF273.1643356643359
aF143.636885952312
aF428.19883997041535
aF245.17615907029224
aF0.0
aF175.74251211368
aF769.2096370978815
aF337.77444173390916
aF169.87405052539646
aF489.01834881891364
aF553.6076766931168
aF94.41087613293045
aF0.0
aF0.0
aF0.0
aF608.0807170848159
aF73.05313397944768
aF603.4638826866211
aF44.74773464593355
aF0.0
aF0.0
aF0.0
asS'Firmicutes__Clostridia__Oscillospirales__Butyricicoccaceae__UCG_009__uncultured_organism__ASV265'
p129
(lp130
F0.0
aF0.0
aF0.0
aF3425.590719763323
aF490.3523181405845
aF631.8893491539708
aF225.95465843187512
aF1263.7015466608043
aF0.0
aF1625.9373407430726
aF1296.9617077371245
aF0.0
aF692.3464249748234
aF937.4683287726758
aF0.0
aF0.0
aF608.0807170848159
aF1071.4459650319018
aF1066.1195260797
aF111.86933661483411
aF0.0
aF882.4869050330219
aF283.1858407079643
asS'Firmicutes__Clostridia__Clostridia_vadinBB60_group__Clostridia_vadinBB60_group__Clostridia_vadinBB60_group__uncultured_bacterium__ASV1385'
p131
(lp132
F372.63377552541397
aF573.6451048951047
aF335.1527338887293
aF0.0
aF0.0
aF0.0
aF0.0
aF0.0
aF0.0
aF0.0
aF297.6633427593392
aF0.0
aF566.4652567975835
aF0.0
aF212.36494916513996
aF0.0
aF270.2580964821405
aF73.05313397944768
aF422.42471788063483
aF0.0
aF0.0
aF455.4771122751087
aF70.79646017699113
asS'Firmicutes__Clostridia__Lachnospirales__Lachnospiraceae__uncultured__uncultured_bacterium__ASV900'
p133
(lp134
F0.0
aF600.9615384615377
aF0.0
aF389.2716727003783
aF367.7642386054384
aF0.0
aF100.42429263638827
aF0.0
aF487.89641583786863
aF1213.3860751814034
aF680.3733548784892
aF143.52791617969694
aF0.0
aF354.7177460220933
aF0.0
aF0.0
aF0.0
aF0.0
aF362.07832961197266
aF0.0
aF387.5178462166019
aF0.0
aF0.0
asS'Firmicutes__Clostridia__Oscillospirales__Ruminococcaceae__NA__NA__ASV1302'
p135
(lp136
F0.0
aF245.8479020979019
aF0.0
aF0.0
aF0.0
aF0.0
aF0.0
aF0.0
aF0.0
aF0.0
aF0.0
aF164.0319042053679
aF0.0
aF0.0
aF0.0
aF0.0
aF0.0
aF0.0
aF0.0
aF0.0
aF0.0
aF0.0
aF0.0
asS'Firmicutes__Clostridia__Peptostreptococcales_Tissierellales__Anaerovoracaceae__Family_XIII_UCG_001__uncultured_bacterium__ASV928'
p137
(lp138
F0.0
aF0.0
aF0.0
aF0.0
aF0.0
aF0.0
aF0.0
aF0.0
aF0.0
aF0.0
aF0.0
aF102.51994012835496
aF0.0
aF0.0
aF159.2737118738555
aF0.0
aF0.0
aF48.702089319631824
aF120.69277653732422
aF0.0
aF0.0
aF0.0
aF0.0
asS'Firmicutes__Clostridia__Lachnospirales__Lachnospiraceae__NA__NA__ASV728'
p139
(lp140
F124.21125850847098
aF737.5437062937057
aF311.21325289667664
aF272.4901708902642
aF1152.3279476303765
aF1053.1489152566146
aF1908.0615600913834
aF0.0
aF863.2013510977671
aF3518.81961802606
aF1573.3633831565078
aF1763.3429702077092
aF1856.7472306143043
aF1342.8600385122065
aF451.2755169759227
aF2278.2220569090555
aF1373.8119904508787
aF754.8823844542926
aF1206.9277653732422
aF357.9818771674688
aF1284.9275953497902
aF1195.6274197221583
aF306.78466076696174
asS'Firmicutes__Clostridia__Oscillospirales__Oscillospiraceae__Oscillibacter__uncultured_bacterium__ASV1155'
p141
(lp142
F1565.0618572067372
aF1748.2517482517492
aF0.0
aF2140.9941998520817
aF1127.8103317233383
aF0.0
aF451.90931686374927
aF0.0
aF0.0
aF2451.039871866431
aF1764.718389216079
aF1783.8469582333792
aF0.0
aF0.0
aF584.0036102041354
aF0.0
aF0.0
aF316.56358057760616
aF1931.0844245971896
aF1924.1525897751444
aF0.0
aF0.0
aF0.0
asS'Bacteroidota__Bacteroidia__Bacteroidales__Dysgonomonadaceae__Dysgonomonas__NA__ASV443'
p143
(lp144
F0.0
aF0.0
aF0.0
aF0.0
aF73.55284772108757
aF0.0
aF0.0
aF0.0
aF75.06098705197971
aF0.0
aF0.0
aF0.0
aF0.0
aF0.0
aF132.7280932282127
aF0.0
aF0.0
aF0.0
aF0.0
aF0.0
aF0.0
aF0.0
aF0.0
asS'Firmicutes__Clostridia__Lachnospirales__Lachnospiraceae__NA__NA__ASV605'
p145
(lp146
F173.89576191185958
aF1147.2902097902095
aF0.0
aF0.0
aF196.14092725623382
aF0.0
aF200.84858527277754
aF0.0
aF0.0
aF1358.9924042031678
aF0.0
aF615.1196407701298
aF0.0
aF278.70680044593087
aF132.7280932282127
aF162.73014692207528
aF0.0
aF0.0
aF181.03916480598633
aF0.0
aF0.0
aF597.81370986108
aF165.1917404129791
asS'Firmicutes__Clostridia__Lachnospirales__Lachnospiraceae__GCA_900066575__uncultured_bacterium__ASV658'
p147
(lp148
F571.3717891389683
aF409.74650349650284
aF0.0
aF0.0
aF0.0
aF0.0
aF0.0
aF0.0
aF0.0
aF218.40949353265262
aF829.2050262581588
aF0.0
aF440.58408862034247
aF0.0
aF0.0
aF0.0
aF180.1720643214267
aF219.15940193834274
aF0.0
aF290.8602751985685
aF265.14378951662263
aF199.27123662036036
aF0.0
asS'Bacteroidota__Bacteroidia__Bacteroidales__Muribaculaceae__Muribaculaceae__uncultured_bacterium__ASV1451'
p149
(lp150
F0.0
aF9970.498251748246
aF5075.169970315045
aF0.0
aF46093.117905214865
aF4072.1758056589224
aF15390.022846526614
aF0.0
aF5104.147119534627
aF0.0
aF3763.3151191716456
aF12876.504480121393
aF22029.204431017126
aF89034.15425154554
aF11812.800297310956
aF20225.03254602935
aF11823.791721093603
aF2995.1784931573593
aF0.0
aF1610.9184472536065
aF1550.0713848664077
aF2675.928034616261
aF4837.758112094395
asS'Firmicutes__Clostridia__Oscillospirales__Oscillospiraceae__Colidextribacter__NA__ASV404'
p151
(lp152
F0.0
aF0.0
aF1077.27664464234
aF0.0
aF1765.2683453061024
aF1685.0382644105914
aF803.3943410911102
aF2362.572456800635
aF638.018389941828
aF0.0
aF0.0
aF1230.2392815402595
aF1101.4602215508562
aF1140.1641836424462
aF1539.6458814472633
aF1534.3128138367153
aF0.0
aF0.0
aF2474.2019190151527
aF0.0
aF0.0
aF967.8888635846054
aF967.551622418879
asS'Proteobacteria__Gammaproteobacteria__Enterobacterales__Morganellaceae__Proteus__NA__ASV22'
p153
(lp154
F1465.692850399958
aF191.2150349650349
aF95.75792396820837
aF194.63583635018915
aF0.0
aF0.0
aF0.0
aF0.0
aF0.0
aF0.0
aF42.52333467990558
aF0.0
aF0.0
aF0.0
aF0.0
aF0.0
aF360.34412864285434
aF0.0
aF1186.8123026170263
aF0.0
aF0.0
aF0.0
aF0.0
asS'Firmicutes__Clostridia__Lachnospirales__Lachnospiraceae__uncultured__uncultured_bacterium__ASV1001'
p155
(lp156
F2360.0139116609607
aF464.3793706293708
aF0.0
aF0.0
aF0.0
aF0.0
aF828.5004142502067
aF0.0
aF0.0
aF0.0
aF0.0
aF0.0
aF220.29204431017124
aF481.4026553156983
aF0.0
aF69.74149153803239
aF0.0
aF0.0
aF201.15462756220737
aF0.0
aF0.0
aF341.60783420633175
aF0.0
asS'Bacteroidota__Bacteroidia__Bacteroidales__Muribaculaceae__Muribaculaceae__uncultured_bacterium__ASV120'
p157
(lp158
F0.0
aF14860.139860139892
aF7421.239107536147
aF0.0
aF0.0
aF0.0
aF0.0
aF0.0
aF0.0
aF0.0
aF0.0
aF0.0
aF0.0
aF0.0
aF0.0
aF0.0
aF0.0
aF0.0
aF0.0
aF0.0
aF0.0
aF0.0
aF0.0
asS'Firmicutes__Clostridia__Lachnospirales__Lachnospiraceae__NA__NA__ASV41'
p159
(lp160
F0.0
aF0.0
aF0.0
aF0.0
aF9758.011130997624
aF0.0
aF0.0
aF0.0
aF0.0
aF0.0
aF0.0
aF2296.446658875149
aF4248.489425981871
aF2229.6544035674447
aF2946.5636696663178
aF7601.82257764553
aF0.0
aF633.1271611552133
aF0.0
aF0.0
aF0.0
aF0.0
aF1203.5398230088497
asS'Firmicutes__Bacilli__Erysipelotrichales__Erysipelotrichaceae__Dubosiella__uncultured_bacterium__ASV759'
p161
(lp162
F0.0
aF901.4423076923075
aF3854.256439720389
aF7590.797617657367
aF6742.3443744330325
aF5546.584287018185
aF3991.8656322964553
aF2115.3265020191748
aF5779.6960030024375
aF2596.6462008881954
aF5485.5101737078185
aF2152.918742695449
aF8622.860020140986
aF6891.659065572106
aF10432.428127737518
aF8183.001673795798
aF4234.04351155353
aF3652.656698972379
aF1709.8143342787632
aF9061.416265801547
aF9851.11156434836
aF2505.1241175130945
aF7929.203539823
asS'Firmicutes__Clostridia__Lachnospirales__Lachnospiraceae__Eubacterium_ventriosum_group__NA__ASV269'
p163
(lp164
F0.0
aF1830.2010489510492
aF215.455328928469
aF0.0
aF0.0
aF0.0
aF0.0
aF0.0
aF0.0
aF0.0
aF0.0
aF0.0
aF0.0
aF0.0
aF0.0
aF0.0
aF0.0
aF0.0
aF181.03916480598633
aF0.0
aF0.0
aF0.0
aF0.0
asS'Firmicutes__Clostridia__Lachnospirales__Lachnospiraceae__Lachnospiraceae_NK4A136_group__NA__ASV931'
p165
(lp166
F0.0
aF0.0
aF0.0
aF0.0
aF0.0
aF0.0
aF0.0
aF0.0
aF0.0
aF728.0316451088411
aF0.0
aF0.0
aF0.0
aF0.0
aF0.0
aF0.0
aF0.0
aF0.0
aF724.1566592239453
aF0.0
aF326.3308178666128
aF0.0
aF0.0
asS'Firmicutes__Clostridia__Lachnospirales__Lachnospiraceae__GCA_900066575__uncultured_bacterium__ASV634'
p167
(lp168
F0.0
aF1311.1888111888093
aF2537.5849851575226
aF1284.596519911251
aF245.17615907029224
aF526.5744576283093
aF1330.621877432155
aF1346.116864921291
aF638.018389941828
aF558.1575945834446
aF1169.391703697407
aF533.1036886674458
aF1101.4602215508562
aF0.0
aF132.7280932282127
aF348.70745769016145
aF1644.0700869330203
aF974.0417863926355
aF0.0
aF201.3648059067008
aF0.0
aF256.20587565474835
aF0.0
asS'Firmicutes__Clostridia__Oscillospirales__Oscillospiraceae__uncultured__NA__ASV1096'
p169
(lp170
F2335.171659959261
aF710.2272727272726
aF742.1239107536147
aF2880.610377982792
aF931.6694044671096
aF0.0
aF376.59109738645753
aF3296.6127304194924
aF750.6098705197971
aF1723.0082267575888
aF1148.1300363574487
aF328.0638084107358
aF472.05438066465223
aF684.0985101854667
aF292.0018051020682
aF278.96596615212974
aF1058.5108778883853
aF0.0
aF482.7711061492969
aF0.0
aF673.0573118498886
aF768.617626964245
aF188.79056047197653
asS'Firmicutes__Clostridia__Oscillospirales__Oscillospiraceae__Colidextribacter__uncultured_bacterium__ASV727'
p171
(lp172
F944.0055646643823
aF2076.048951048949
aF0.0
aF1751.7225271517013
aF1397.504106700669
aF1298.8836621498301
aF803.3943410911102
aF2142.798274772667
aF1613.8112216175593
aF1965.6854417938696
aF2338.783407394804
aF1189.2313054889194
aF566.4652567975835
aF582.7505827505825
aF1619.2827373841903
aF743.9092430723447
aF855.8173055267775
aF681.8292504748451
aF2212.700903184274
aF648.8421523660373
aF1142.1578625331467
aF1138.6927806877693
aF401.17994100294953
asS'Firmicutes__Clostridia__Lachnospirales__Lachnospiraceae__uncultured__uncultured_bacterium__ASV204'
p173
(lp174
F596.214040840662
aF273.1643356643359
aF383.03169587283367
aF0.0
aF0.0
aF0.0
aF0.0
aF192.30240927447088
aF262.7134546819295
aF0.0
aF765.4200242382999
aF0.0
aF0.0
aF0.0
aF0.0
aF0.0
aF0.0
aF0.0
aF0.0
aF0.0
aF0.0
aF0.0
aF0.0
asS'Firmicutes__Clostridia__Clostridia_vadinBB60_group__Clostridia_vadinBB60_group__Clostridia_vadinBB60_group__uncultured_bacterium__ASV1051'
p175
(lp176
F0.0
aF15406.468531468494
aF3638.801110791915
aF0.0
aF0.0
aF4879.589974022332
aF0.0
aF0.0
aF13023.08125351847
aF0.0
aF6931.303552824609
aF553.6076766931168
aF0.0
aF0.0
aF424.7298983302799
aF650.9205876883021
aF2207.1077879374843
aF0.0
aF6658.218172309058
aF0.0
aF3100.1427697328154
aF0.0
aF0.0
asS'Firmicutes__Clostridia__Lachnospirales__Lachnospiraceae__NA__NA__ASV346'
p177
(lp178
F0.0
aF0.0
aF0.0
aF0.0
aF0.0
aF0.0
aF0.0
aF0.0
aF0.0
aF0.0
aF276.40167541938627
aF615.1196407701298
aF0.0
aF0.0
aF0.0
aF0.0
aF0.0
aF219.15940193834274
aF382.1937923681937
aF0.0
aF142.76973281664334
aF256.20587565474835
aF306.78466076696174
asS'Cyanobacteria__Vampirivibrionia__Gastranaerophilales__Gastranaerophilales__Gastranaerophilales__uncultured_bacterium__ASV1152'
p179
(lp180
F0.0
aF0.0
aF0.0
aF0.0
aF0.0
aF0.0
aF0.0
aF0.0
aF0.0
aF0.0
aF0.0
aF0.0
aF87455.94159113796
aF0.0
aF530.9123729128509
aF116.23581923005348
aF360.34412864285434
aF0.0
aF0.0
aF89.4954692918672
aF0.0
aF73616.48827146439
aF40235.988200589934
asS'Bacteroidota__Bacteroidia__Bacteroidales__Prevotellaceae__Prevotellaceae_UCG_001__uncultured_Bacteroidales__ASV86'
p181
(lp182
F74.52675510508278
aF0.0
aF0.0
aF0.0
aF0.0
aF0.0
aF0.0
aF109.88709101398307
aF0.0
aF194.14177202902454
aF127.57000403971665
aF184.5358922310389
aF0.0
aF152.02189115232582
aF106.18247458256998
aF0.0
aF0.0
aF0.0
aF0.0
aF380.3557444904352
aF81.5827044666531
aF0.0
aF70.79646017699113
asS'Firmicutes__Clostridia__Lachnospirales__Lachnospiraceae__uncultured__uncultured_bacterium__ASV986'
p183
(lp184
F1863.1688776270748
aF1420.4545454545494
aF0.0
aF0.0
aF784.5637090249343
aF0.0
aF0.0
aF796.6814098513778
aF0.0
aF0.0
aF0.0
aF820.1595210268397
aF0.0
aF1621.5668389581435
aF0.0
aF395.20178538218323
aF1103.5538939687372
aF0.0
aF0.0
aF0.0
aF428.309198449929
aF0.0
aF0.0
asS'Firmicutes__Clostridia__Lachnospirales__Lachnospiraceae__NA__NA__ASV165'
p185
(lp186
F198.73801361355436
aF0.0
aF0.0
aF0.0
aF0.0
aF140.41985536754896
aF125.53036579548585
aF0.0
aF0.0
aF0.0
aF0.0
aF0.0
aF0.0
aF0.0
aF265.4561864564254
aF162.73014692207528
aF0.0
aF0.0
aF0.0
aF402.72961181340264
aF0.0
aF199.27123662036036
aF0.0
asS'Firmicutes__Clostridia__Oscillospirales__Oscillospiraceae__uncultured__uncultured_bacterium__ASV1040'
p187
(lp188
F0.0
aF655.5944055944057
aF0.0
aF0.0
aF269.6937749773215
aF0.0
aF0.0
aF0.0
aF1088.3843122537023
aF873.6379741306084
aF0.0
aF61.511964077012976
aF0.0
aF608.0875646093033
aF0.0
aF604.4262599962804
aF0.0
aF0.0
aF2152.354514915616
aF0.0
aF142.76973281664334
aF0.0
aF353.98230088495563
asS'Firmicutes__Clostridia__Lachnospirales__Lachnospiraceae__NA__NA__ASV791'
p189
(lp190
F0.0
aF491.6958041958038
aF0.0
aF0.0
aF833.5989408389927
aF0.0
aF0.0
aF0.0
aF638.018389941828
aF703.763923605213
aF0.0
aF738.1435689241556
aF629.405840886203
aF0.0
aF0.0
aF0.0
aF0.0
aF0.0
aF362.07832961197266
aF0.0
aF0.0
aF0.0
aF0.0
asS'Firmicutes__Clostridia__Oscillospirales__Oscillospiraceae__Oscillibacter__uncultured_bacterium__ASV480'
p191
(lp192
F1565.0618572067372
aF0.0
aF2154.55328928469
aF0.0
aF1691.7154975850176
aF3019.0268904023083
aF1857.8494137731923
aF879.0967281118645
aF412.83542878588895
aF0.0
aF1509.5783811366439
aF6930.347952676797
aF6640.231621349449
aF1089.4902199249987
aF2415.6512967534727
aF1232.0996838385704
aF1171.11841808928
aF754.8823844542926
aF3520.2059823386267
aF0.0
aF0.0
aF854.0195855158285
aF377.58112094395307
asS'Firmicutes__Clostridia__Peptococcales__Peptococcaceae__uncultured__NA__ASV621'
p193
(lp194
F1266.9548367864097
aF0.0
aF0.0
aF1401.3780217213612
aF0.0
aF0.0
aF0.0
aF906.5685008653608
aF0.0
aF0.0
aF0.0
aF1660.823030079349
aF629.405840886203
aF354.7177460220933
aF822.9141780149181
aF185.97731076808617
aF0.0
aF0.0
aF0.0
aF0.0
aF0.0
aF370.07515372352526
aF330.3834808259582
asS'Firmicutes__Clostridia__Clostridia_vadinBB60_group__Clostridia_vadinBB60_group__Clostridia_vadinBB60_group__unidentified__ASV1225'
p195
(lp196
F5688.8756396879835
aF8058.347902097897
aF837.8818347218223
aF6384.055432286195
aF10419.986760487447
aF2316.927613564558
aF23072.481233210317
aF5192.165050410698
aF1313.5672734096424
aF655.2284805979568
aF3912.146790551311
aF2214.430706772469
aF2549.0936555891208
aF10008.107834194778
aF1884.7389238406179
aF999.6280453784635
aF563.0377010044591
aF1095.7970096917138
aF0.0
aF246.11254055263464
aF2773.8119518662106
aF313.14051468913726
aF401.17994100294953
asS'Firmicutes__Clostridia__Lachnospirales__Lachnospiraceae__Blautia__unidentified__ASV841'
p197
(lp198
F2956.2279525016156
aF1092.6573426573393
aF981.5187206741352
aF272.4901708902642
aF686.4932453968173
aF210.62978305132393
aF1682.106901659513
aF2362.572456800635
aF375.30493525989857
aF752.299366612468
aF510.2800161588666
aF1845.358922310389
aF13721.047331319207
aF202.69585486976743
aF185.81933051949724
aF69.74149153803239
aF1238.6829422098128
aF511.3719378561341
aF1106.350451592142
aF469.8512137823029
aF326.3308178666128
aF0.0
aF0.0
asS'Firmicutes__Clostridia__Lachnospirales__Lachnospiraceae__NA__NA__ASV490'
p199
(lp200
F1813.4843742236849
aF573.6451048951047
aF813.9423537297707
aF0.0
aF343.24662269840917
aF456.3645299445343
aF0.0
aF219.77418202796613
aF0.0
aF0.0
aF0.0
aF246.0478563080519
aF0.0
aF0.0
aF0.0
aF0.0
aF337.8226206026754
aF0.0
aF362.07832961197266
aF0.0
aF0.0
aF0.0
aF117.99410029498522
asS'Firmicutes__Clostridia__Lachnospirales__Lachnospiraceae__Eubacterium_fissicatena_group__uncultured_bacterium__ASV77'
p201
(lp202
F15824.514333979248
aF3277.9720279720286
aF2130.6138082926373
aF2257.775701662192
aF7281.731924387673
aF877.6240960471812
aF3816.1231201827763
aF9010.741463146614
aF1238.5062863576657
aF1310.4569611959096
aF2211.213403355086
aF1783.8469582333792
aF5853.474320241689
aF6764.974156278501
aF3079.2917628945365
aF5184.117537660403
aF3716.0488266294283
aF316.56358057760616
aF3037.4348761893316
aF4720.886005145992
aF4017.948194982663
aF11643.133682532498
aF3067.8466076696172
asS'Firmicutes__Clostridia__Clostridia_vadinBB60_group__Clostridia_vadinBB60_group__Clostridia_vadinBB60_group__unidentified__ASV457'
p203
(lp204
F0.0
aF3196.0227272727284
aF359.09221488078094
aF0.0
aF0.0
aF0.0
aF1079.5611458411795
aF0.0
aF0.0
aF0.0
aF0.0
aF0.0
aF0.0
aF0.0
aF0.0
aF0.0
aF0.0
aF0.0
aF965.5422122985948
aF0.0
aF0.0
aF0.0
aF0.0
asS'Firmicutes__Clostridia__Lachnospirales__Lachnospiraceae__Eubacterium_xylanophilum_group__uncultured_bacterium__ASV377'
p205
(lp206
F0.0
aF3441.870629370628
aF1675.7636694436467
aF1751.7225271517013
aF3015.666756564592
aF2211.6127220388985
aF150.6364389545834
aF1071.3991373863385
aF3677.988365547009
aF0.0
aF0.0
aF1230.2392815402595
aF566.4652567975835
aF0.0
aF584.0036102041354
aF0.0
aF180.1720643214267
aF365.26566989723796
aF0.0
aF0.0
aF2855.394656332857
aF0.0
aF1203.5398230088497
asS'Bacteroidota__Bacteroidia__Bacteroidales__Muribaculaceae__Muribaculaceae__uncultured_Bacteroidales__ASV984'
p207
(lp208
F0.0
aF0.0
aF0.0
aF0.0
aF0.0
aF6002.948816962719
aF0.0
aF0.0
aF2214.299118033403
aF3130.536073968015
aF3699.530117151782
aF0.0
aF0.0
aF0.0
aF0.0
aF0.0
aF0.0
aF5649.442361077282
aF0.0
aF4049.6699854569893
aF7750.356924332048
aF10020.496470052396
aF5828.908554572268
asS'Verrucomicrobiota__Verrucomicrobiae__Verrucomicrobiales__Akkermansiaceae__Akkermansia__uncultured_bacterium__ASV171'
p209
(lp210
F80836.6870373132
aF5299.388111888108
aF113066.16872546231
aF14441.979057184011
aF23904.67550935347
aF25521.308713052018
aF68740.42830960815
aF79860.44339441223
aF27322.199286920662
aF5047.686072754626
aF20538.770650394432
aF19745.34046872119
aF81539.52668680767
aF48114.92854971112
aF69655.70332616595
aF21991.816998326194
aF37520.83239493714
aF28612.47747528369
aF20759.157564419813
aF94753.32811276431
aF16561.289006730545
aF92347.98451377818
aF44342.182890855416
asS'Bacteroidota__Bacteroidia__Bacteroidales__Muribaculaceae__Muribaculaceae__uncultured_Bacteroidales__ASV1360'
p211
(lp212
F0.0
aF0.0
aF9719.429282773142
aF49865.70127291844
aF9292.176428764069
aF31243.417819279675
aF98616.65536893377
aF125930.60630202455
aF37755.67648714577
aF5581.5759458344455
aF47562.34983947434
aF45723.89329724628
aF71311.68177240688
aF0.0
aF112420.69496429653
aF94476.47387018781
aF112269.71758028919
aF115326.5475088883
aF100919.27664795886
aF52869.44848417053
aF4772.588211299208
aF2732.8626736506503
aF29734.513274336277
asS'Firmicutes__Clostridia__Oscillospirales__Ruminococcaceae__Harryflintia__uncultured_bacterium__ASV396'
p213
(lp214
F0.0
aF600.9615384615377
aF0.0
aF0.0
aF0.0
aF0.0
aF0.0
aF0.0
aF0.0
aF218.40949353265262
aF0.0
aF0.0
aF0.0
aF0.0
aF0.0
aF0.0
aF0.0
aF73.05313397944768
aF281.6164785870895
aF0.0
aF0.0
aF0.0
aF0.0
asS'Bacteroidota__Bacteroidia__Bacteroidales__Muribaculaceae__Muribaculaceae__uncultured_bacterium__ASV1262'
p215
(lp216
F298.10702042033154
aF437.0629370629368
aF8642.152638130803
aF35073.37771030403
aF11057.44477407014
aF11619.743031664648
aF19206.145966709362
aF357.13304579544547
aF7693.751172827922
aF8712.11201980246
aF9078.731954159843
aF451.0877365647618
aF0.0
aF126.68490929360502
aF185.81933051949724
aF0.0
aF67.56452412053508
aF9740.417863926354
aF0.0
aF14766.75243315806
aF4425.861717315934
aF6917.558642678204
aF6843.657817109138
asS'Firmicutes__Clostridia__Lachnospirales__Lachnospiraceae__uncultured__NA__ASV905'
p217
(lp218
F0.0
aF0.0
aF0.0
aF428.19883997041535
aF0.0
aF245.73474689321043
aF0.0
aF384.6048185489407
aF675.5488834678174
aF0.0
aF0.0
aF164.0319042053679
aF0.0
aF0.0
aF371.63866103899545
aF0.0
aF0.0
aF0.0
aF1569.006094985211
aF0.0
aF0.0
aF0.0
aF0.0
asS'Firmicutes__Clostridia__Lachnospirales__Lachnospiraceae__A2__uncultured_bacterium__ASV30'
p219
(lp220
F0.0
aF0.0
aF0.0
aF0.0
aF0.0
aF315.9446745769854
aF0.0
aF412.076591302437
aF0.0
aF485.3544300725604
aF0.0
aF225.5438682823809
aF0.0
aF329.3807641633725
aF265.4561864564254
aF0.0
aF0.0
aF0.0
aF281.6164785870895
aF0.0
aF224.35243728329652
aF0.0
aF0.0
asS'Firmicutes__Clostridia__Clostridia_vadinBB60_group__Clostridia_vadinBB60_group__Clostridia_vadinBB60_group__uncultured_Clostridia__ASV318'
p221
(lp222
F1540.2196055050474
aF1857.517482517479
aF478.7896198410413
aF1012.1063490209807
aF1005.2222521881973
aF0.0
aF0.0
aF274.7177275349577
aF0.0
aF849.3702526269803
aF1488.3167137966961
aF410.07976051341984
aF220.29204431017124
aF785.44643762035
aF0.0
aF0.0
aF202.69357236160565
aF0.0
aF683.9257337115042
aF0.0
aF0.0
aF0.0
aF259.58702064896784
asS'Firmicutes__Bacilli__RF39__RF39__RF39__unidentified__ASV594'
p223
(lp224
F0.0
aF0.0
aF0.0
aF0.0
aF0.0
aF631.8893491539708
aF652.7579021365268
aF0.0
aF638.018389941828
aF0.0
aF0.0
aF0.0
aF0.0
aF0.0
aF318.5474237477099
aF0.0
aF0.0
aF0.0
aF0.0
aF0.0
aF1713.23679379972
aF0.0
aF141.59292035398263
asS'Firmicutes__Clostridia__Lachnospirales__Lachnospiraceae__Lachnospiraceae_NK4A136_group__NA__ASV585'
p225
(lp226
F0.0
aF9806.599650349646
aF0.0
aF8602.903966678357
aF16034.520803197101
aF1579.7233728849221
aF0.0
aF0.0
aF3227.6224432351287
aF15895.357584876365
aF0.0
aF8570.666994730465
aF0.0
aF4712.678625722097
aF0.0
aF3440.580249209601
aF0.0
aF0.0
aF30977.8126445799
aF0.0
aF1733.632469916379
aF0.0
aF2289.0855457227117
asS'Firmicutes__Clostridia__Oscillospirales__Oscillospiraceae__NA__NA__ASV23'
p227
(lp228
F0.0
aF437.0629370629368
aF526.6685818251457
aF0.0
aF0.0
aF386.15460226075936
aF125.53036579548585
aF274.7177275349577
aF487.89641583786863
aF461.0867085689323
aF1467.055046456738
aF205.03988025670992
aF409.11379657603175
aF0.0
aF504.3667542672082
aF371.95462153617234
aF292.7796045223185
aF0.0
aF643.6948081990631
aF313.2341425215349
aF0.0
aF0.0
aF0.0
asS'Bacteroidota__Bacteroidia__Bacteroidales__Prevotellaceae__Alloprevotella__gut_metagenome__ASV217'
p229
(lp230
F198.73801361355436
aF600.9615384615377
aF335.1527338887293
aF0.0
aF367.7642386054384
aF280.8397107350979
aF376.59109738645753
aF549.4354550699154
aF112.59148057797006
aF485.3544300725604
aF212.61667339952743
aF594.6156527444588
aF0.0
aF0.0
aF318.5474237477099
aF395.20178538218323
aF427.9086527633893
aF267.8614912579745
aF241.38555307464844
aF671.2160196890037
aF305.93514174994874
aF768.617626964245
aF471.97640117994086
asS'Firmicutes__Clostridia__Oscillospirales__Oscillospiraceae__uncultured__uncultured_bacterium__ASV1290'
p231
(lp232
F2633.2786803795884
aF7867.132867132866
aF1580.005745475436
aF2802.7560434427223
aF3628.6071542403174
aF3194.5517096117405
aF778.2882679320126
aF1977.9676382516934
aF1276.0367798836542
aF4513.796199674806
aF3890.8851232113634
aF1271.2472575915995
aF1667.9254783484396
aF4991.385426168035
aF769.8229407236336
aF627.6734238422912
aF1126.0754020089182
aF681.8292504748451
aF6155.331603403537
aF536.9728157512031
aF1407.3016520497642
aF540.8790708266912
aF825.9587020648964
asS'Bacteroidota__Bacteroidia__Bacteroidales__Muribaculaceae__Muribaculaceae__uncultured_Bacteroidales__ASV1198'
p233
(lp234
F0.0
aF109.26573426573394
aF0.0
aF0.0
aF0.0
aF1720.143228252478
aF0.0
aF0.0
aF0.0
aF1383.2601257068018
aF2508.876746114427
aF3752.229808697788
aF849.6978851963743
aF0.0
aF0.0
aF3138.367119211456
aF1058.5108778883853
aF2045.4877514245363
aF0.0
aF2103.1435283588817
aF1386.9059759331053
aF4697.107720337055
aF1486.7256637168089
asS'Proteobacteria__Gammaproteobacteria__Burkholderiales__Sutterellaceae__Parasutterella__Burkholderiales_bacterium__ASV1138'
p235
(lp236
F99.3690068067771
aF0.0
aF191.51584793641635
aF350.3445054303403
aF318.7290067913799
aF210.62978305132393
aF0.0
aF0.0
aF0.0
aF0.0
aF0.0
aF574.1116647187878
aF0.0
aF0.0
aF0.0
aF325.46029384415056
aF0.0
aF243.5104465981586
aF0.0
aF559.3466830741696
aF265.14378951662263
aF0.0
aF0.0
asS'Actinobacteriota__Actinobacteria__Bifidobacteriales__Bifidobacteriaceae__Bifidobacterium__Bifidobacterium_pseudolongum__ASV49'
p237
(lp238
F0.0
aF0.0
aF646.365986785406
aF0.0
aF0.0
aF526.5744576283093
aF175.74251211368
aF0.0
aF0.0
aF0.0
aF0.0
aF0.0
aF220.29204431017124
aF0.0
aF79.63685593692753
aF0.0
aF0.0
aF511.3719378561341
aF864.9648985174906
aF2036.0219263899814
aF632.2659596165614
aF256.20587565474835
aF0.0
asS'Deferribacterota__Deferribacteres__Deferribacterales__Deferribacteraceae__Mucispirillum__NA__ASV1007'
p239
(lp240
F198.73801361355436
aF0.0
aF119.69740496026033
aF0.0
aF0.0
aF175.52481920943643
aF125.53036579548585
aF0.0
aF0.0
aF97.07088601451208
aF127.57000403971665
aF82.01595210268395
aF0.0
aF0.0
aF79.63685593692753
aF185.97731076808617
aF0.0
aF170.45731261871103
aF0.0
aF89.4954692918672
aF101.97838058331625
aF113.86927806877694
aF0.0
asS'Bacteroidota__Bacteroidia__Bacteroidales__Muribaculaceae__Muribaculaceae__uncultured_bacterium__ASV139'
p241
(lp242
F0.0
aF109.26573426573394
aF95231.25538638313
aF16777.609093386316
aF1201.3631794444332
aF0.0
aF0.0
aF0.0
aF0.0
aF0.0
aF0.0
aF0.0
aF0.0
aF0.0
aF0.0
aF0.0
aF45.04301608035672
aF1875.0304388058232
aF0.0
aF13043.964649289635
aF0.0
aF1935.7777271692146
aF2713.864306784656
asS'Firmicutes__Clostridia__Lachnospirales__Lachnospiraceae__NA__NA__ASV1342'
p243
(lp244
F0.0
aF0.0
aF0.0
aF0.0
aF0.0
aF0.0
aF0.0
aF0.0
aF0.0
aF0.0
aF0.0
aF184.5358922310389
aF0.0
aF0.0
aF0.0
aF185.97731076808617
aF0.0
aF121.7552232990793
aF0.0
aF0.0
aF0.0
aF0.0
aF0.0
asS'Proteobacteria__Gammaproteobacteria__Enterobacterales__Enterobacteriaceae__Escherichia_Shigella__NA__ASV600'
p245
(lp246
F22730.660307050213
aF382.4300699300698
aF71.81844297615619
aF0.0
aF245.17615907029224
aF0.0
aF0.0
aF0.0
aF0.0
aF315.48037954716386
aF148.8316713796696
aF0.0
aF0.0
aF304.04378230465164
aF106.18247458256998
aF0.0
aF315.30111256249745
aF219.15940193834274
aF4908.172912517854
aF246.11254055263464
aF163.1654089333064
aF0.0
aF259.58702064896784
asS'Actinobacteriota__Coriobacteriia__Coriobacteriales__Eggerthellaceae__Enterorhabdus__uncultured_bacterium__ASV1373'
p247
(lp248
F944.0055646643823
aF0.0
aF0.0
aF155.7086690801511
aF809.0813249319634
aF0.0
aF0.0
aF302.1895002884539
aF0.0
aF0.0
aF340.1866774392441
aF1004.6954132578796
aF755.287009063444
aF3800.5472788081506
aF637.0948474954209
aF1487.8184861446914
aF923.3818296473135
aF267.8614912579745
aF0.0
aF1297.6843047320785
aF1060.5751580664905
aF398.54247324071974
aF1132.7433628318572
asS'Desulfobacterota__Desulfovibrionia__Desulfovibrionales__Desulfovibrionaceae__uncultured__uncultured_bacterium__ASV823'
p249
(lp250
F0.0
aF81.94930069930066
aF95.75792396820837
aF0.0
aF0.0
aF70.20992768377448
aF0.0
aF137.35886376747933
aF0.0
aF0.0
aF106.30833669976371
aF41.00797605134198
aF0.0
aF101.34792743488421
aF159.2737118738555
aF0.0
aF67.56452412053508
aF48.702089319631824
aF60.34638826866211
aF89.4954692918672
aF163.1654089333064
aF0.0
aF117.99410029498522
asS'Firmicutes__Clostridia__Oscillospirales__Ruminococcaceae__Incertae_Sedis__uncultured_bacterium__ASV1141'
p251
(lp252
F770.1098027525227
aF0.0
aF0.0
aF544.9803417805294
aF269.6937749773215
aF386.15460226075936
aF0.0
aF219.77418202796613
aF0.0
aF169.87405052539646
aF0.0
aF328.0638084107358
aF0.0
aF0.0
aF0.0
aF0.0
aF0.0
aF0.0
aF0.0
aF0.0
aF0.0
aF199.27123662036036
aF0.0
asS'Firmicutes__Clostridia__Oscillospirales__Ruminococcaceae__Negativibacillus__unidentified__ASV1260'
p253
(lp254
F2832.016693993147
aF7457.386363636356
aF1891.2189983721107
aF2685.9745416326123
aF0.0
aF1263.7786983079436
aF2736.5619743415973
aF0.0
aF1688.8722086695461
aF2038.4886063047516
aF1892.2883932557968
aF0.0
aF0.0
aF658.761528326745
aF0.0
aF255.71880230611887
aF0.0
aF0.0
aF4505.863657393443
aF89.4954692918672
aF81.5827044666531
aF0.0
aF94.39528023598817
asS'Firmicutes__Clostridia__Oscillospirales__Eubacterium_coprostanoligenes_group__Eubacterium_coprostanoligenes_group__NA__ASV432'
p255
(lp256
F869.4788095592999
aF191.2150349650349
aF4668.19879345016
aF233.5630036202272
aF1225.8807953514613
aF3896.65098644949
aF150.6364389545834
aF109.88709101398307
aF1013.3233252017257
aF0.0
aF446.4950141390088
aF0.0
aF2612.0342396777423
aF1292.1860747947692
aF637.0948474954209
aF1232.0996838385704
aF563.0377010044591
aF535.72298251595
aF362.07832961197266
aF201.3648059067008
aF2467.876810116255
aF512.4117513094967
aF377.58112094395307
asS'Firmicutes__Clostridia__Oscillospirales__Oscillospiraceae__NA__NA__ASV1319'
p257
(lp258
F0.0
aF0.0
aF0.0
aF0.0
aF0.0
aF0.0
aF0.0
aF0.0
aF0.0
aF0.0
aF574.0650181787255
aF512.5997006417748
aF0.0
aF278.70680044593087
aF477.8211356215654
aF0.0
aF427.9086527633893
aF0.0
aF563.23295717418
aF0.0
aF0.0
aF0.0
aF0.0
asS'Firmicutes__Clostridia__Lachnospirales__Lachnospiraceae__Lachnoclostridium__NA__ASV237'
p259
(lp260
F4397.078551199884
aF0.0
aF3136.0720099588193
aF661.7618435906425
aF490.3523181405845
aF1579.7233728849221
aF1606.7886821822165
aF3681.2175489684337
aF863.2013510977671
aF0.0
aF3167.988433652963
aF799.6555330011687
aF1888.217522658615
aF0.0
aF1380.3721695734087
aF2022.5032546029352
aF4008.8284311517514
aF1314.9564116300605
aF1066.1195260797
aF357.9818771674688
aF938.2011013665112
aF2704.3953541334604
aF589.9705014749261
asS'Firmicutes__Clostridia__Lachnospirales__Lachnospiraceae__NA__NA__ASV906'
p261
(lp262
F919.1633129626874
aF0.0
aF1101.2161256343925
aF0.0
aF318.7290067913799
aF0.0
aF1958.2737064095843
aF1758.1934562237252
aF0.0
aF436.8189870653042
aF1785.980056556037
aF533.1036886674458
aF0.0
aF582.7505827505825
aF371.63866103899545
aF395.20178538218323
aF2139.543263816941
aF852.2865630935562
aF201.15462756220737
aF246.11254055263464
aF652.6616357332246
aF1053.2908221361909
aF235.98820058997043
asS'Firmicutes__Clostridia__Oscillospirales__Oscillospiraceae__uncultured__uncultured_bacterium__ASV142'
p263
(lp264
F7775.624782630306
aF2321.896853146849
aF1963.0374413482689
aF3386.663552493283
aF0.0
aF0.0
aF2535.7133890688124
aF1593.3628197027515
aF1388.6282604616292
aF1698.7405052539648
aF2274.99840537495
aF1250.7432695659295
aF1069.9899295065454
aF608.0875646093033
aF451.2755169759227
aF534.6847684582476
aF5562.812485924057
aF1071.4459650319018
aF905.1958240299327
aF604.0944177201035
aF1264.531919233121
aF3159.872466408562
aF519.1740412979348
asS'Bacteroidota__Bacteroidia__Bacteroidales__Muribaculaceae__Muribaculaceae__uncultured_bacterium__ASV1285'
p265
(lp266
F0.0
aF0.0
aF0.0
aF0.0
aF0.0
aF3686.021203398161
aF0.0
aF0.0
aF1388.6282604616292
aF4174.04809862402
aF6591.116875385363
aF0.0
aF0.0
aF0.0
aF0.0
aF0.0
aF0.0
aF3579.6035649929336
aF0.0
aF2841.481150016785
aF0.0
aF12212.480072876388
aF5970.501474926253
asS'Bacteroidota__Bacteroidia__Bacteroidales__Muribaculaceae__Muribaculaceae__NA__ASV338'
p267
(lp268
F0.0
aF0.0
aF30762.233074786927
aF6150.492428665975
aF711.0108613038465
aF1404.1985536754896
aF251.0607315909717
aF0.0
aF525.426909363858
aF339.74810105079194
aF999.2983649777813
aF5761.620635213547
aF1636.455186304129
aF0.0
aF345.0930423933527
aF0.0
aF1508.9410386919544
aF4553.645351385568
aF0.0
aF4452.3995972703915
aF2712.6249235162136
aF7287.6337964017375
aF2949.85250737463
asS'Firmicutes__Clostridia__Lachnospirales__Lachnospiraceae__NA__NA__ASV274'
p269
(lp270
F1217.27033338302
aF655.5944055944057
aF0.0
aF0.0
aF809.0813249319634
aF0.0
aF2184.2283648414545
aF1510.9475014422646
aF0.0
aF461.0867085689323
aF552.8033508387725
aF2234.934694798139
aF0.0
aF1748.2517482517476
aF1672.373974675482
aF139.48298307606436
aF517.9946849241021
aF194.8083572785269
aF120.69277653732422
aF693.5898870119702
aF0.0
aF142.33659758597142
aF330.3834808259582
asS'Firmicutes__Clostridia__Oscillospirales__Ruminococcaceae__Paludicola__uncultured_bacterium__ASV62'
p271
(lp272
F0.0
aF136.58216783216795
aF0.0
aF0.0
aF73.55284772108757
aF0.0
aF0.0
aF0.0
aF0.0
aF121.33860751814034
aF0.0
aF0.0
aF0.0
aF0.0
aF0.0
aF0.0
aF0.0
aF0.0
aF120.69277653732422
aF0.0
aF0.0
aF0.0
aF0.0
asS'Bacteroidota__Bacteroidia__Bacteroidales__Muribaculaceae__Muribaculaceae__NA__ASV182'
p273
(lp274
F0.0
aF218.5314685314689
aF0.0
aF0.0
aF0.0
aF54131.85424419011
aF5096.532851296731
aF12691.959012115027
aF69844.24845186716
aF13420.04999150625
aF33061.8927136266
aF43960.55032703858
aF24169.184290030218
aF0.0
aF24421.969153991085
aF557.9319323042586
aF27431.19679293729
aF9107.290702771146
aF0.0
aF18503.18827609349
aF77075.26004487055
aF61916.41994989752
aF37970.5014749262
asS'Firmicutes__Bacilli__Lactobacillales__Lactobacillaceae__Lactobacillus__Lactobacillus_apodemi__ASV163'
p275
(lp276
F223.58026531524814
aF573.6451048951047
aF1651.824188451594
aF1946.3583635018917
aF220.65854316326303
aF210.62978305132393
aF301.27287790916586
aF192.30240927447088
aF0.0
aF315.48037954716386
aF233.87834073948036
aF430.58374853909083
aF188.8217522658605
aF0.0
aF318.5474237477099
aF185.97731076808617
aF0.0
aF1485.4137242487736
aF241.38555307464844
aF5280.232688220158
aF163.1654089333064
aF3529.9476201320854
aF3044.24778761062
asS'Bacteroidota__Bacteroidia__Bacteroidales__Muribaculaceae__Muribaculaceae__uncultured_bacterium__ASV1073'
p277
(lp278
F298.10702042033154
aF628.2779720279717
aF215.455328928469
aF0.0
aF318.7290067913799
aF140.41985536754896
aF175.74251211368
aF0.0
aF0.0
aF364.01582255442
aF276.40167541938627
aF410.07976051341984
aF0.0
aF253.36981858721003
aF424.7298983302799
aF139.48298307606436
aF0.0
aF340.91462523742206
aF241.38555307464844
aF380.3557444904352
aF244.74811339995955
aF512.4117513094967
aF141.59292035398263
asS'Firmicutes__Clostridia__Clostridia_vadinBB60_group__Clostridia_vadinBB60_group__Clostridia_vadinBB60_group__unidentified__ASV710'
p279
(lp280
F13787.449694440287
aF11937.281468531493
aF5482.141147179931
aF2063.1398653120013
aF4731.899870056638
aF1193.5687706241706
aF0.0
aF1318.6450921677988
aF1989.1161568774628
aF1989.9531632974936
aF978.0366976378284
aF1455.7831498226392
aF1132.930513595167
aF1317.5230566534879
aF0.0
aF0.0
aF4932.210260799061
aF608.7761164953976
aF1669.583408766321
aF0.0
aF0.0
aF0.0
aF377.58112094395307
asS'Firmicutes__Clostridia__Oscillospirales__Oscillospiraceae__Colidextribacter__uncultured_bacterium__ASV927'
p281
(lp282
F1888.0111293287646
aF0.0
aF0.0
aF2179.921367122112
aF2304.655895260743
aF2632.8722881415465
aF2460.3951695915257
aF2829.5925936100634
aF0.0
aF6406.6784769577935
aF1956.0733952756607
aF0.0
aF1762.3363544813722
aF3699.1993513732655
aF1592.7371187385547
aF836.8978984563882
aF0.0
aF121.7552232990793
aF0.0
aF0.0
aF2488.272486232924
aF2903.666590753817
aF1250.7374631268444
asS'Firmicutes__Bacilli__Erysipelotrichales__Erysipelotrichaceae__Dubosiella__uncultured_bacterium__ASV840'
p283
(lp284
F1664.4308640135162
aF3277.9720279720286
aF15680.360049794148
aF26275.837907275523
aF27680.38835903596
aF20395.98399213647
aF15841.932163390315
aF8351.41891706272
aF19928.692062300648
aF8226.7575897299
aF17881.062232900287
aF6745.812060445756
aF30211.48036253772
aF26882.537752102944
aF38013.32590056006
aF30802.492095964313
aF14526.372685915021
aF13660.936054156724
aF6255.908917184638
aF33538.427117127256
aF36467.46889659398
aF8767.93441129584
aF32330.383480825894
asS'Firmicutes__Clostridia__Oscillospirales__Ruminococcaceae__uncultured__uncultured_bacterium__ASV1128'
p285
(lp286
F1093.059074874551
aF1010.7080419580395
aF0.0
aF1051.0335162910208
aF563.9051658616712
aF0.0
aF0.0
aF549.4354550699154
aF0.0
aF970.7088601451208
aF786.6816915782529
aF1640.3190420536794
aF849.6978851963743
aF253.36981858721003
aF0.0
aF0.0
aF337.8226206026754
aF0.0
aF402.30925512441473
aF0.0
aF428.309198449929
aF654.7483488954681
aF0.0
asS'Bacteroidota__Bacteroidia__Bacteroidales__Muribaculaceae__Muribaculaceae__uncultured_Bacteroidales__ASV185'
p287
(lp288
F0.0
aF81.94930069930066
aF15704.29953078619
aF3075.2462143329826
aF588.4227817687014
aF631.8893491539708
aF0.0
aF0.0
aF0.0
aF169.87405052539646
aF786.6816915782529
aF3157.6141559533285
aF881.1681772406849
aF0.0
aF0.0
aF139.48298307606436
aF855.8173055267775
aF2337.700287342329
aF0.0
aF2125.5173956818453
aF1284.9275953497902
aF3558.4149396492853
aF1699.1150442477858
asS'Bacteroidota__Bacteroidia__Bacteroidales__Muribaculaceae__Muribaculaceae__uncultured_bacterium__ASV1270'
p289
(lp290
F0.0
aF0.0
aF0.0
aF0.0
aF0.0
aF7126.307659903117
aF351.48502422736095
aF0.0
aF2964.9089885532003
aF4902.079743732862
aF10503.263665936664
aF54130.528387771374
aF6105.236656596176
aF0.0
aF796.3685593692754
aF232.47163846010798
aF14256.114589432927
aF9569.960551307642
aF0.0
aF8054.592236268042
aF18886.39608403018
aF9764.290594397633
aF10949.852507374633
asS'Bacteroidota__Bacteroidia__Bacteroidales__Bacteroidaceae__Bacteroides__Bacteroides_vulgatus__ASV669'
p291
(lp292
F223.58026531524814
aF0.0
aF0.0
aF272.4901708902642
aF0.0
aF0.0
aF251.0607315909717
aF219.77418202796613
aF0.0
aF0.0
aF233.87834073948036
aF205.03988025670992
aF0.0
aF0.0
aF185.81933051949724
aF255.71880230611887
aF0.0
aF0.0
aF140.80823929354526
aF0.0
aF203.9567611666325
aF370.07515372352526
aF0.0
asS'Bacteroidota__Bacteroidia__Bacteroidales__Muribaculaceae__Muribaculaceae__uncultured_bacterium__ASV1278'
p293
(lp294
F0.0
aF27698.86363636359
aF12831.561811739868
aF233.5630036202272
aF132615.78444112098
aF11549.533103980935
aF45793.47744219326
aF1016.455591879344
aF15500.09382623378
aF1820.079112772105
aF11736.440371653904
aF37071.21035041318
aF60391.490433031206
aF266570.38613560377
aF35836.58517161746
aF62558.11790961499
aF34029.998648709494
aF7354.015487264402
aF0.0
aF5011.746280344557
aF5139.71038139915
aF8056.251423365984
aF16684.365781710952
asS'Bacteroidota__Bacteroidia__Bacteroidales__Muribaculaceae__Muribaculaceae__uncultured_Bacteroidales__ASV1303'
p295
(lp296
F0.0
aF0.0
aF0.0
aF0.0
aF0.0
aF9267.710454258233
aF979.1368532047902
aF0.0
aF2702.195533871272
aF9610.017715436692
aF8334.573597261493
aF0.0
aF0.0
aF0.0
aF0.0
aF0.0
aF0.0
aF9545.60950664783
aF0.0
aF7159.637543349376
aF11054.456455231504
aF12696.424504668608
aF9628.318584070797
asS'Firmicutes__Clostridia__Lachnospirales__Lachnospiraceae__NA__NA__ASV281'
p297
(lp298
F1341.481591891489
aF12592.875874125893
aF263.33429091257335
aF5294.094748725134
aF7575.943315272022
aF5371.059467808753
aF477.0153900228468
aF467.02013680942855
aF6567.836367048222
aF4853.5443007256035
aF2976.6334275933923
aF4141.805581185538
aF786.7573011077537
aF3369.818587209891
aF292.0018051020682
aF1418.0769946066555
aF0.0
aF0.0
aF8388.147969344038
aF0.0
aF4772.588211299208
aF0.0
aF1297.9351032448392
asS'Firmicutes__Clostridia__Lachnospirales__Lachnospiraceae__NA__NA__ASV282'
p299
(lp300
F26432.155810602744
aF6282.779720279717
aF4141.53021162501
aF2997.3918797929123
aF0.0
aF0.0
aF0.0
aF0.0
aF2852.317507975225
aF0.0
aF0.0
aF0.0
aF0.0
aF532.07661903314
aF0.0
aF0.0
aF0.0
aF0.0
aF1951.1998873534058
aF290.8602751985685
aF0.0
aF0.0
aF0.0
asS'Bacteroidota__Bacteroidia__Bacteroidales__Muribaculaceae__Muribaculaceae__uncultured_Bacteroidales__ASV966'
p301
(lp302
F0.0
aF0.0
aF0.0
aF0.0
aF0.0
aF140.41985536754896
aF0.0
aF0.0
aF1313.5672734096424
aF24.267721503628067
aF21.26166733995274
aF20.50398802567099
aF0.0
aF0.0
aF0.0
aF116.23581923005348
aF0.0
aF48.702089319631824
aF0.0
aF22.373867322966824
aF40.7913522333266
aF85.40195855158285
aF23.598820058997042
asS'Firmicutes__Clostridia__Oscillospirales__Butyricicoccaceae__Butyricicoccus__uncultured_bacterium__ASV749'
p303
(lp304
F546.5295374372735
aF54.63286713286708
aF287.273771904625
aF311.4173381603022
aF0.0
aF105.31489152566147
aF0.0
aF412.076591302437
aF0.0
aF266.94493653990776
aF361.448344779197
aF82.01595210268395
aF125.881168177241
aF101.34792743488421
aF398.18427968463817
aF92.98865538404308
aF405.38714472321027
aF316.56358057760616
aF362.07832961197266
aF0.0
aF163.1654089333064
aF0.0
aF0.0
asS'Bacteroidota__Bacteroidia__Bacteroidales__Prevotellaceae__Alloprevotella__uncultured_Bacteroidales__ASV708'
p305
(lp306
F74.52675510508278
aF0.0
aF0.0
aF0.0
aF0.0
aF0.0
aF0.0
aF0.0
aF0.0
aF0.0
aF0.0
aF0.0
aF0.0
aF0.0
aF0.0
aF0.0
aF0.0
aF0.0
aF0.0
aF246.11254055263464
aF0.0
aF113.86927806877694
aF0.0
asS'Firmicutes__Clostridia__Lachnospirales__Lachnospiraceae__Lachnoclostridium__NA__ASV157'
p307
(lp308
F1689.2731157152061
aF1201.9230769230794
aF957.5792396820837
aF778.5433454007557
aF0.0
aF0.0
aF477.0153900228468
aF769.2096370978815
aF0.0
aF0.0
aF850.4666935981116
aF0.0
aF0.0
aF0.0
aF557.4579915584926
aF0.0
aF1193.639926129451
aF900.9886524131879
aF0.0
aF1141.0672334713045
aF367.1221700999389
aF0.0
aF0.0
asS'Firmicutes__Clostridia__Clostridia_vadinBB60_group__Clostridia_vadinBB60_group__Clostridia_vadinBB60_group__uncultured_Clostridia__ASV158'
p309
(lp310
F0.0
aF519.0122377622378
aF1029.3976826582348
aF0.0
aF588.4227817687014
aF0.0
aF301.27287790916586
aF0.0
aF0.0
aF0.0
aF276.40167541938627
aF0.0
aF0.0
aF0.0
aF0.0
aF0.0
aF495.47317688392417
aF0.0
aF482.7711061492969
aF0.0
aF0.0
aF341.60783420633175
aF0.0
asS'Firmicutes__Clostridia__Lachnospirales__Lachnospiraceae__Lachnospiraceae_NK4A136_group__uncultured_bacterium__ASV976'
p311
(lp312
F0.0
aF109.26573426573394
aF0.0
aF4243.061232434124
aF2868.5610611224124
aF596.7843853120833
aF1079.5611458411795
aF164.83063652097462
aF1688.8722086695461
aF1965.6854417938696
aF999.2983649777813
aF553.6076766931168
aF0.0
aF2685.720077024423
aF0.0
aF581.1790961502694
aF0.0
aF0.0
aF0.0
aF178.9909385837344
aF1937.5892310830097
aF370.07515372352526
aF802.3598820058991
asS'Firmicutes__Clostridia__Oscillospirales__Oscillospiraceae__uncultured__NA__ASV969'
p313
(lp314
F2136.433646345702
aF437.0629370629368
aF359.09221488078094
aF1284.596519911251
aF294.2113908843507
aF631.8893491539708
aF1054.455072682084
aF0.0
aF375.30493525989857
aF1723.0082267575888
aF127.57000403971665
aF1025.1994012835496
aF629.405840886203
aF608.0875646093033
aF0.0
aF418.4489492281941
aF0.0
aF0.0
aF2152.354514915616
aF0.0
aF0.0
aF854.0195855158285
aF117.99410029498522
asS'Firmicutes__Clostridia__Clostridia_vadinBB60_group__Clostridia_vadinBB60_group__Clostridia_vadinBB60_group__uncultured_bacterium__ASV761'
p315
(lp316
F546.5295374372735
aF273.1643356643359
aF0.0
aF2296.702868932232
aF563.9051658616712
aF1158.463806782284
aF451.90931686374927
aF714.2660915908899
aF0.0
aF4101.244934113137
aF467.75668147896073
aF205.03988025670992
aF188.8217522658605
aF2254.9913854261636
aF0.0
aF46.49432769202159
aF157.65055628124873
aF0.0
aF0.0
aF0.0
aF61.18702834998985
aF0.0
aF212.38938053097297
asS'Firmicutes__Clostridia__Lachnospirales__Lachnospiraceae__uncultured__uncultured_bacterium__ASV66'
p317
(lp318
F1515.3773538033474
aF519.0122377622378
aF598.4870248013017
aF1323.523687181281
aF0.0
aF0.0
aF426.80324370465263
aF0.0
aF562.9574028898484
aF364.01582255442
aF0.0
aF0.0
aF975.5790533736152
aF405.3917097395359
aF0.0
aF0.0
aF0.0
aF0.0
aF985.6576750548148
aF0.0
aF0.0
aF0.0
aF0.0
asS'Actinobacteriota__Coriobacteriia__Coriobacteriales__Atopobiaceae__Coriobacteriaceae_UCG_002__uncultured_bacterium__ASV1249'
p319
(lp320
F0.0
aF0.0
aF0.0
aF0.0
aF0.0
aF70.20992768377448
aF0.0
aF0.0
aF112.59148057797006
aF0.0
aF0.0
aF0.0
aF188.8217522658605
aF202.69585486976743
aF0.0
aF116.23581923005348
aF0.0
aF121.7552232990793
aF0.0
aF156.61707126076797
aF203.9567611666325
aF113.86927806877694
aF259.58702064896784
asS'Actinobacteriota__Actinobacteria__Bifidobacteriales__Bifidobacteriaceae__Bifidobacterium__Bifidobacterium_pseudolongum__ASV493'
p321
(lp322
F0.0
aF0.0
aF0.0
aF0.0
aF0.0
aF0.0
aF0.0
aF192.30240927447088
aF337.77444173390916
aF0.0
aF233.87834073948036
aF0.0
aF0.0
aF0.0
aF0.0
aF348.70745769016145
aF0.0
aF0.0
aF0.0
aF1029.1978968564677
aF0.0
aF0.0
aF896.7551622418878
asS'Firmicutes__Clostridia__Oscillospirales__Oscillospiraceae__Colidextribacter__NA__ASV365'
p323
(lp324
F0.0
aF2349.213286713289
aF0.0
aF1751.7225271517013
aF1029.7398680952256
aF0.0
aF853.6064874093043
aF109.88709101398307
aF1088.3843122537023
aF1431.79556871405
aF701.635022218442
aF1558.3030899509993
aF0.0
aF1165.501165501165
aF0.0
aF0.0
aF45.04301608035672
aF535.72298251595
aF2997.2039506768897
aF0.0
aF0.0
aF1110.2254611705796
aF0.0
asS'Firmicutes__Clostridia__Lachnospirales__Lachnospiraceae__Lachnospiraceae_NK4A136_group__NA__ASV1179'
p325
(lp326
F0.0
aF2840.9090909090887
aF0.0
aF2647.047374362572
aF0.0
aF0.0
aF0.0
aF0.0
aF1763.9331957215227
aF655.2284805979568
aF1509.5783811366439
aF3588.1979044924187
aF0.0
aF0.0
aF0.0
aF0.0
aF0.0
aF0.0
aF0.0
aF0.0
aF2223.1286967162964
aF0.0
aF0.0
asS'Firmicutes__Clostridia__Peptococcales__Peptococcaceae__uncultured__uncultured_bacterium__ASV1002'
p327
(lp328
F0.0
aF0.0
aF502.729100833094
aF233.5630036202272
aF490.3523181405845
aF0.0
aF276.1668047500693
aF0.0
aF0.0
aF728.0316451088411
aF425.2333467990558
aF553.6076766931168
aF0.0
aF405.3917097395359
aF0.0
aF0.0
aF405.38714472321027
aF97.40417863926355
aF0.0
aF0.0
aF0.0
aF0.0
aF141.59292035398263
asS'Firmicutes__Clostridia__Oscillospirales__Oscillospiraceae__Colidextribacter__uncultured_bacterium__ASV1255'
p329
(lp330
F1738.9576191185956
aF409.74650349650284
aF430.910657856937
aF389.2716727003783
aF392.28185451246765
aF0.0
aF0.0
aF0.0
aF0.0
aF266.94493653990776
aF425.2333467990558
aF1332.7592216686094
aF346.17321248741223
aF0.0
aF0.0
aF0.0
aF1126.0754020089182
aF267.8614912579745
aF301.73194134331055
aF290.8602751985685
aF0.0
aF0.0
aF0.0
asS'Desulfobacterota__Desulfovibrionia__Desulfovibrionales__Desulfovibrionaceae__Desulfovibrio__uncultured_bacterium__ASV858'
p331
(lp332
F4223.182789288026
aF2677.0104895104887
aF2417.887580197259
aF5255.1675814551045
aF661.9756294897882
aF0.0
aF150.6364389545834
aF0.0
aF0.0
aF121.33860751814034
aF0.0
aF0.0
aF0.0
aF0.0
aF0.0
aF0.0
aF0.0
aF316.56358057760616
aF0.0
aF0.0
aF652.6616357332246
aF0.0
aF235.98820058997043
asS'Bacteroidota__Bacteroidia__Bacteroidales__Muribaculaceae__Muribaculaceae__uncultured_Bacteroidales__ASV398'
p333
(lp334
F0.0
aF0.0
aF0.0
aF0.0
aF0.0
aF4704.065154812889
aF728.0761216138186
aF0.0
aF1726.4027021955342
aF2984.9297449462506
aF4549.9968107499
aF0.0
aF0.0
aF0.0
aF0.0
aF0.0
aF0.0
aF4237.081770807964
aF0.0
aF3311.3323637990866
aF8280.644503365294
aF9479.617399225697
aF4932.153392330385
asS'Actinobacteriota__Coriobacteriia__Coriobacteriales__Eggerthellaceae__Enterorhabdus__uncultured_bacterium__ASV1157'
p335
(lp336
F0.0
aF0.0
aF0.0
aF0.0
aF0.0
aF0.0
aF0.0
aF247.24595478146242
aF0.0
aF0.0
aF85.04666935981116
aF0.0
aF0.0
aF506.7396371744191
aF265.4561864564254
aF116.23581923005348
aF0.0
aF0.0
aF0.0
aF0.0
aF0.0
aF0.0
aF0.0
asS'Firmicutes__Clostridia__Clostridia_vadinBB60_group__Clostridia_vadinBB60_group__Clostridia_vadinBB60_group__unidentified__ASV1326'
p337
(lp338
F2210.960401450792
aF12947.989510489493
aF0.0
aF0.0
aF5688.086890430778
aF1053.1489152566146
aF1129.7732921593704
aF0.0
aF3002.4394820791886
aF2159.827213822892
aF0.0
aF0.0
aF0.0
aF1672.240802675581
aF0.0
aF185.97731076808617
aF0.0
aF0.0
aF3238.589503751532
aF0.0
aF693.4529879665517
aF0.0
aF0.0
asS'Firmicutes__Clostridia__Oscillospirales__Oscillospiraceae__uncultured__unidentified__ASV26'
p339
(lp340
F496.8450340338859
aF1584.3531468531494
aF1101.2161256343925
aF934.2520144809067
aF1323.9512589795743
aF456.3645299445343
aF1079.5611458411795
aF1977.9676382516934
aF1238.5062863576657
aF2475.3075933700547
aF999.2983649777813
aF410.07976051341984
aF2108.5095669687803
aF734.7724739029084
aF1300.7353136364814
aF1511.0656499907032
aF1531.4625467321252
aF852.2865630935562
aF2816.1647858708952
aF2930.9766193086484
aF775.0356924332049
aF996.3561831017998
aF188.79056047197653
asS'Firmicutes__Clostridia__Christensenellales__Christensenellaceae__uncultured__uncultured_bacterium__ASV777'
p341
(lp342
F372.63377552541397
aF0.0
aF0.0
aF272.4901708902642
aF612.9403976757297
aF0.0
aF0.0
aF219.77418202796613
aF112.59148057797006
aF72.8031645108841
aF467.75668147896073
aF102.51994012835496
aF409.11379657603175
aF380.0547278808141
aF0.0
aF0.0
aF292.7796045223185
aF97.40417863926355
aF0.0
aF246.11254055263464
aF0.0
aF56.93463903438856
aF70.79646017699113
asS'Firmicutes__Clostridia__Lachnospirales__Lachnospiraceae__Acetatifactor__uncultured_bacterium__ASV1424'
p343
(lp344
F2186.118149749092
aF1038.0244755244796
aF0.0
aF817.4705126707937
aF784.5637090249343
aF0.0
aF1004.2429263638826
aF412.076591302437
aF825.6708575717769
aF364.01582255442
aF1148.1300363574487
aF963.6874372065365
aF1227.3413897280993
aF608.0875646093033
aF0.0
aF255.71880230611887
aF0.0
aF0.0
aF1468.4287812041107
aF402.72961181340264
aF673.0573118498886
aF0.0
aF141.59292035398263
asS'Firmicutes__Clostridia__Lachnospirales__Lachnospiraceae__NA__NA__ASV574'
p345
(lp346
F0.0
aF0.0
aF1484.2478215072251
aF0.0
aF0.0
aF0.0
aF0.0
aF0.0
aF0.0
aF291.21265804353584
aF0.0
aF0.0
aF0.0
aF0.0
aF0.0
aF0.0
aF1531.4625467321252
aF2167.2429747236156
aF1387.9669301792267
aF0.0
aF0.0
aF0.0
aF0.0
asS'Bacteroidota__Bacteroidia__Bacteroidales__Muribaculaceae__Muribaculaceae__uncultured_bacterium__ASV672'
p347
(lp348
F13539.027177423388
aF0.0
aF2250.311213252891
aF0.0
aF8213.401328854787
aF3721.1261672400474
aF0.0
aF0.0
aF825.6708575717769
aF606.6930375907007
aF2062.3817319754207
aF5023.477066289388
aF4248.489425981871
aF0.0
aF451.2755169759227
aF209.22447461409706
aF2342.23683617855
aF3214.337895095696
aF80.46185102488286
aF1991.2741917440446
aF4792.983887415867
aF2562.058756547483
aF3823.0088495575155
asS'Bacteroidota__Bacteroidia__Bacteroidales__Muribaculaceae__Muribaculaceae__uncultured_bacterium__ASV1203'
p349
(lp350
F248.42251701694295
aF409.74650349650284
aF0.0
aF350.3445054303403
aF122.58807953514612
aF210.62978305132393
aF0.0
aF82.41531826048731
aF0.0
aF218.40949353265262
aF0.0
aF266.5518443337229
aF0.0
aF76.01094557616291
aF0.0
aF162.73014692207528
aF0.0
aF194.8083572785269
aF100.57731378110319
aF0.0
aF285.53946563328566
aF341.60783420633175
aF0.0
asS'Firmicutes__Clostridia__Oscillospirales__Ruminococcaceae__Incertae_Sedis__uncultured_Clostridiales__ASV250'
p351
(lp352
F546.5295374372735
aF0.0
aF0.0
aF0.0
aF122.58807953514612
aF245.73474689321043
aF50.21214631819434
aF302.1895002884539
aF112.59148057797006
aF266.94493653990776
aF552.8033508387725
aF205.03988025670992
aF94.41087613293045
aF50.673963717441914
aF0.0
aF46.49432769202159
aF450.4301608035672
aF170.45731261871103
aF321.84740409953156
aF89.4954692918672
aF203.9567611666325
aF142.33659758597142
aF0.0
asS'Bacteroidota__Bacteroidia__Bacteroidales__Muribaculaceae__Muribaculaceae__NA__ASV203'
p353
(lp354
F0.0
aF0.0
aF0.0
aF0.0
aF171.62331134920458
aF105.31489152566147
aF0.0
aF0.0
aF0.0
aF169.87405052539646
aF0.0
aF0.0
aF0.0
aF0.0
aF0.0
aF139.48298307606436
aF0.0
aF0.0
aF0.0
aF178.9909385837344
aF0.0
aF142.33659758597142
aF0.0
asS'Firmicutes__Clostridia__Lachnospirales__Lachnospiraceae__uncultured__NA__ASV1435'
p355
(lp356
F0.0
aF546.3286713286708
aF239.39480992052066
aF0.0
aF0.0
aF0.0
aF477.0153900228468
aF192.30240927447088
aF0.0
aF0.0
aF148.8316713796696
aF0.0
aF0.0
aF253.36981858721003
aF159.2737118738555
aF0.0
aF0.0
aF0.0
aF301.73194134331055
aF156.61707126076797
aF244.74811339995955
aF0.0
aF0.0
asS'Firmicutes__Clostridia__Oscillospirales__Ruminococcaceae__uncultured__uncultured_bacterium__ASV705'
p357
(lp358
F422.31827892880256
aF1611.6695804195792
aF287.273771904625
aF0.0
aF0.0
aF0.0
aF0.0
aF0.0
aF562.9574028898484
aF0.0
aF0.0
aF758.6475569498266
aF0.0
aF0.0
aF0.0
aF0.0
aF0.0
aF0.0
aF1227.0432281294684
aF0.0
aF0.0
aF0.0
aF0.0
asS'Firmicutes__Clostridia__Lachnospirales__Lachnospiraceae__Lachnospiraceae_UCG_006__Clostridium_sp___ASV681'
p359
(lp360
F173.89576191185958
aF327.79720279720283
aF0.0
aF0.0
aF0.0
aF0.0
aF0.0
aF0.0
aF262.7134546819295
aF315.48037954716386
aF0.0
aF0.0
aF188.8217522658605
aF228.03283672848823
aF0.0
aF0.0
aF0.0
aF267.8614912579745
aF301.73194134331055
aF0.0
aF0.0
aF313.14051468913726
aF259.58702064896784
asS'Firmicutes__Clostridia__Lachnospirales__Lachnospiraceae__NA__NA__ASV515'
p361
(lp362
F99.3690068067771
aF0.0
aF0.0
aF0.0
aF0.0
aF0.0
aF0.0
aF0.0
aF0.0
aF0.0
aF233.87834073948036
aF184.5358922310389
aF0.0
aF0.0
aF0.0
aF116.23581923005348
aF0.0
aF0.0
aF100.57731378110319
aF89.4954692918672
aF163.1654089333064
aF0.0
aF0.0
asS'Firmicutes__Clostridia__Lachnospirales__Lachnospiraceae__Lachnospiraceae_NK4A136_group__unidentified__ASV1259'
p363
(lp364
F1018.5323197694615
aF3906.249999999998
aF0.0
aF5449.803417805294
aF6913.96768578224
aF0.0
aF0.0
aF0.0
aF0.0
aF7959.812653189993
aF0.0
aF0.0
aF0.0
aF734.7724739029084
aF0.0
aF534.6847684582476
aF0.0
aF0.0
aF563.23295717418
aF0.0
aF693.4529879665517
aF2419.722158961516
aF0.0
asS'Firmicutes__Clostridia__Lachnospirales__Lachnospiraceae__NA__NA__ASV577'
p365
(lp366
F0.0
aF218.5314685314689
aF0.0
aF661.7618435906425
aF784.5637090249343
aF0.0
aF426.80324370465263
aF192.30240927447088
aF1538.7502345655828
aF825.1025311233524
aF0.0
aF430.58374853909083
aF2171.450151057402
aF1697.57778453431
aF0.0
aF348.70745769016145
aF833.2957974865996
aF0.0
aF764.3875847363875
aF0.0
aF305.93514174994874
aF427.0097927579142
aF0.0
asS'Firmicutes__Clostridia__Oscillospirales__Oscillospiraceae__Colidextribacter__NA__ASV162'
p367
(lp368
F0.0
aF2704.326923076919
aF0.0
aF2452.411538012382
aF1422.0217226076973
aF2352.0325774064445
aF0.0
aF0.0
aF1013.3233252017257
aF8784.915184313342
aF8249.526927901683
aF7730.003485677956
aF3744.964753272909
aF481.4026553156983
aF0.0
aF1232.0996838385704
aF0.0
aF0.0
aF3600.6678333635105
aF1499.0491106387794
aF0.0
aF1394.8986563425144
aF0.0
asS'Firmicutes__Clostridia__Lachnospirales__Lachnospiraceae__Lachnospiraceae_NK4A136_group__uncultured_bacterium__ASV506'
p369
(lp370
F33387.98628707709
aF58129.37062937057
aF14220.051709278945
aF23122.737358402417
aF19050.187559761704
aF25907.463315312787
aF15264.492480731085
aF6400.923051564518
aF25070.36967536126
aF7838.474045671853
aF11927.795377713464
aF42361.23926103628
aF0.0
aF27743.995135299443
aF6424.039712245491
aF11019.155663009098
aF157.65055628124873
aF0.0
aF51938.12483656187
aF402.72961181340264
aF7566.795839282077
aF0.0
aF12460.176991150389
asS'Firmicutes__Clostridia__Oscillospirales__Ruminococcaceae__Ruminococcaceae__NA__ASV1175'
p371
(lp372
F5713.717891389683
aF10298.295454545494
aF2561.5244661495753
aF2179.921367122112
aF9390.24689239218
aF456.3645299445343
aF1857.8494137731923
aF1126.3426828933232
aF4278.476261962843
aF6358.143033950536
aF2360.0450747347613
aF2316.9506469008193
aF2234.3907351460234
aF3293.807641633725
aF292.0018051020682
aF1627.3014692207528
aF337.8226206026754
aF219.15940193834274
aF5089.212077323838
aF1409.5536413469058
aF3038.9557413828284
aF0.0
aF542.7728613569321
asS'Bacteroidota__Bacteroidia__Bacteroidales__Rikenellaceae__Alistipes__Alistipes_inops__ASV902'
p373
(lp374
F0.0
aF0.0
aF0.0
aF0.0
aF0.0
aF7828.406936740857
aF0.0
aF0.0
aF638.018389941828
aF0.0
aF10354.431994557039
aF0.0
aF0.0
aF0.0
aF0.0
aF0.0
aF0.0
aF8133.248916378512
aF0.0
aF8860.051459894847
aF0.0
aF16653.381917558647
aF4106.1946902654845
asS'Firmicutes__Clostridia__Clostridia_vadinBB60_group__Clostridia_vadinBB60_group__Clostridia_vadinBB60_group__unidentified__ASV348'
p375
(lp376
F944.0055646643823
aF0.0
aF0.0
aF1946.3583635018917
aF637.4580135827589
aF0.0
aF0.0
aF0.0
aF1088.3843122537023
aF0.0
aF2572.661748134291
aF738.1435689241556
aF0.0
aF0.0
aF0.0
aF0.0
aF765.7312733660647
aF0.0
aF1528.7751694727788
aF0.0
aF0.0
aF0.0
aF0.0
asS'Firmicutes__Clostridia__Peptostreptococcales_Tissierellales__Anaerovoracaceae__Eubacterium_brachy_group__uncultured_bacterium__ASV586'
p377
(lp378
F0.0
aF0.0
aF0.0
aF0.0
aF0.0
aF0.0
aF0.0
aF0.0
aF150.12197410395942
aF0.0
aF85.04666935981116
aF0.0
aF0.0
aF0.0
aF132.7280932282127
aF46.49432769202159
aF112.6075402008918
aF0.0
aF60.34638826866211
aF0.0
aF61.18702834998985
aF0.0
aF0.0
asS'Firmicutes__Clostridia__Oscillospirales__Ruminococcaceae__Ruminococcus__unidentified__ASV766'
p379
(lp380
F3552.441993342281
aF928.7587412587407
aF0.0
aF0.0
aF14906.710471473742
aF0.0
aF1556.5765358640251
aF714.2660915908899
aF0.0
aF0.0
aF0.0
aF471.59172459043276
aF5916.414904330311
aF1697.57778453431
aF1858.1933051949723
aF11414.35744839133
aF360.34412864285434
aF949.6907417328196
aF3962.7461629754794
aF0.0
aF0.0
aF1195.6274197221583
aF1109.1445427728597
asS'Firmicutes__Clostridia__Oscillospirales__Ruminococcaceae__Incertae_Sedis__Clostridium_sp___ASV664'
p381
(lp382
F745.2675510508279
aF355.1136363636358
aF430.910657856937
aF0.0
aF318.7290067913799
aF0.0
aF451.90931686374927
aF1016.455591879344
aF300.24394820791883
aF412.5512655616762
aF361.448344779197
aF492.0957126161038
aF881.1681772406849
aF228.03283672848823
aF318.5474237477099
aF418.4489492281941
aF1058.5108778883853
aF462.66984853650234
aF603.4638826866211
aF335.60800984450236
aF489.4962267999191
aF170.80391710316587
aF353.98230088495563
asS'Firmicutes__Clostridia__Lachnospirales__Lachnospiraceae__Lachnospiraceae_UCG_001__uncultured_bacterium__ASV1025'
p383
(lp384
F9067.421871118406
aF6883.741258741256
aF3040.314085990619
aF8408.268130328166
aF8899.894574251606
aF8460.296285894825
aF13532.173432753401
aF10466.745419081853
aF3602.9273784950224
aF25626.713907831196
aF3890.8851232113634
aF11933.321030940495
aF6262.588116817719
aF6080.8756460930335
aF6185.129144434709
aF1371.582666914632
aF3130.489617584794
aF1704.5731261871103
aF8086.416028000726
aF715.9637543349376
aF3508.0562920660864
aF626.2810293782736
aF2548.6725663716834
asS'Firmicutes__Clostridia__Lachnospirales__Lachnospiraceae__Eubacterium_xylanophilum_group__uncultured_bacterium__ASV446'
p385
(lp386
F0.0
aF1420.4545454545494
aF0.0
aF0.0
aF0.0
aF351.04963841887286
aF0.0
aF0.0
aF1050.853818727714
aF1358.9924042031678
aF0.0
aF0.0
aF0.0
aF0.0
aF0.0
aF581.1790961502694
aF0.0
aF0.0
aF885.0803612737117
aF0.0
aF0.0
aF0.0
aF330.3834808259582
asS'Bacteroidota__Bacteroidia__Bacteroidales__Muribaculaceae__Muribaculaceae__uncultured_bacterium__ASV953'
p387
(lp388
F521.6872857355797
aF134697.33391608394
aF13430.048836541237
aF60103.54626493835
aF5614.534042709684
aF43600.36509162396
aF10670.081092616267
aF5933.902914755089
aF60987.05197973353
aF70546.26641104663
aF51304.403291306095
aF81113.77662955436
aF30242.95065458205
aF253.36981858721003
aF40402.431578667885
aF48423.84229124045
aF30854.466015044316
aF44635.46486144255
aF80260.69639732069
aF81105.26904575461
aF41913.11441974305
aF123633.56866317471
aF72802.35988200591
asS'Firmicutes__Clostridia__Oscillospirales__Ruminococcaceae__uncultured__Clostridium_leptum__ASV114'
p389
(lp390
F1167.5858299796305
aF1119.9737762237794
aF837.8818347218223
aF2802.7560434427223
aF3334.395763355969
aF631.8893491539708
aF1255.3036579548584
aF0.0
aF863.2013510977671
aF0.0
aF2168.69006867518
aF2952.5742756966188
aF2486.153071500499
aF1520.2189115232584
aF796.3685593692754
aF162.73014692207528
aF743.2097653258867
aF219.15940193834274
aF2112.123589403174
aF0.0
aF0.0
aF0.0
aF0.0
asS'Firmicutes__Clostridia__Peptostreptococcales_Tissierellales__Anaerovoracaceae__Anaerovorax__uncultured_bacterium__ASV1109'
p391
(lp392
F99.3690068067771
aF191.2150349650349
aF0.0
aF0.0
aF318.7290067913799
aF315.9446745769854
aF150.6364389545834
aF0.0
aF0.0
aF0.0
aF0.0
aF225.5438682823809
aF0.0
aF0.0
aF0.0
aF116.23581923005348
aF112.6075402008918
aF0.0
aF422.42471788063483
aF0.0
aF0.0
aF0.0
aF0.0
asS'Bacteroidota__Bacteroidia__Bacteroidales__Muribaculaceae__Muribaculaceae__uncultured_Bacteroidales__ASV649'
p393
(lp394
F173.89576191185958
aF13111.888111888094
aF6248.204538925595
aF5722.293588695554
aF1078.775099909282
aF0.0
aF0.0
aF0.0
aF0.0
aF0.0
aF0.0
aF184.5358922310389
aF0.0
aF0.0
aF0.0
aF69.74149153803239
aF0.0
aF0.0
aF100.57731378110319
aF134.24320393780053
aF0.0
aF0.0
aF141.59292035398263
asS'Firmicutes__Clostridia__Oscillospirales__Oscillospiraceae__uncultured__uncultured_bacterium__ASV459'
p395
(lp396
F347.7915238237201
aF273.1643356643359
aF143.636885952312
aF350.3445054303403
aF0.0
aF0.0
aF0.0
aF0.0
aF187.65246762994977
aF436.8189870653042
aF255.1400080794333
aF1476.2871378483094
aF0.0
aF0.0
aF0.0
aF0.0
aF0.0
aF243.5104465981586
aF543.1174944179589
aF156.61707126076797
aF0.0
aF0.0
aF0.0
asS'Bacteroidota__Bacteroidia__Bacteroidales__Muribaculaceae__Muribaculaceae__uncultured_bacterium__ASV815'
p397
(lp398
F0.0
aF273.1643356643359
aF143.636885952312
aF0.0
aF0.0
aF0.0
aF0.0
aF137.35886376747933
aF0.0
aF0.0
aF0.0
aF0.0
aF0.0
aF0.0
aF0.0
aF139.48298307606436
aF0.0
aF0.0
aF0.0
aF156.61707126076797
aF0.0
aF313.14051468913726
aF141.59292035398263
asS'Firmicutes__Clostridia__Clostridia_vadinBB60_group__Clostridia_vadinBB60_group__Clostridia_vadinBB60_group__NA__ASV214'
p399
(lp400
F4893.92358523377
aF327.79720279720283
aF1843.3400363880053
aF8135.777959437897
aF12160.73748988646
aF1895.6680474619102
aF3138.259144887146
aF12060.108238784605
aF525.426909363858
aF7644.332273642821
aF4741.351816809471
aF0.0
aF881.1681772406849
aF126.68490929360502
aF371.63866103899545
aF720.6620792263348
aF2184.586279897303
aF0.0
aF2977.0884879206633
aF0.0
aF1672.445441566392
aF1651.1045319972698
aF1982.3008849557552
asS'Firmicutes__Clostridia__Oscillospirales__Oscillospiraceae__Intestinimonas__NA__ASV489'
p401
(lp402
F322.9492721220253
aF1420.4545454545494
aF0.0
aF0.0
aF0.0
aF0.0
aF0.0
aF0.0
aF0.0
aF679.4962021015849
aF552.8033508387725
aF0.0
aF0.0
aF0.0
aF0.0
aF0.0
aF0.0
aF0.0
aF704.0411964677253
aF0.0
aF0.0
aF0.0
aF0.0
asS'Bacteroidota__Bacteroidia__Bacteroidales__Muribaculaceae__Muribaculaceae__uncultured_bacterium__ASV1383'
p403
(lp404
F6682.565707755755
aF0.0
aF1101.2161256343925
aF0.0
aF4339.618015544166
aF1474.4084813592626
aF0.0
aF0.0
aF0.0
aF0.0
aF0.0
aF1865.8629103360593
aF0.0
aF0.0
aF0.0
aF0.0
aF990.9463537678483
aF1144.4990990113474
aF0.0
aF1073.9456315024042
aF1937.5892310830097
aF939.4215440674109
aF920.3539823008842
asS'Firmicutes__Clostridia__Oscillospirales__Oscillospiraceae__uncultured__uncultured_bacterium__ASV31'
p405
(lp406
F3130.1237144134743
aF1693.6188811188792
aF1723.642631427752
aF0.0
aF1397.504106700669
aF1649.933300568705
aF0.0
aF0.0
aF1426.1587539876175
aF2499.575314873689
aF1296.9617077371245
aF3813.7417727747984
aF1416.1631419939538
aF0.0
aF0.0
aF0.0
aF1396.3334984910596
aF0.0
aF1267.2741536419005
aF335.60800984450236
aF611.8702834998985
aF0.0
aF0.0
asS'Firmicutes__Bacilli__Erysipelotrichales__Erysipelotrichaceae__Dubosiella__uncultured_bacterium__ASV283'
p407
(lp408
F0.0
aF1065.3409090909097
aF3878.195920712432
aF7785.433454007556
aF7502.3904675509375
aF5371.059467808753
aF3891.441339660063
aF1923.0240927447087
aF5366.860574216555
aF1747.2759482612128
aF5060.27682690876
aF1947.8788624387391
aF7741.691842900304
aF6638.2892469848975
aF9874.970136179018
aF7253.1151199553615
aF4504.301608035673
aF3603.954609652755
aF1569.006094985211
aF9397.024275646048
aF9912.298592698358
aF2618.9933955818724
aF8259.587020648964
asS'Firmicutes__Bacilli__Erysipelotrichales__Erysipelotrichaceae__Dubosiella__uncultured_bacterium__ASV624'
p409
(lp410
F0.0
aF0.0
aF4189.409173609117
aF7123.671610416916
aF7551.425699364993
aF4493.43537176157
aF4393.562802842004
aF2390.044229554137
aF5592.043535372494
aF1820.079112772105
aF5655.603512427442
aF2275.942670849479
aF7395.5186304128865
aF7905.138339920946
aF10352.791271800541
aF9252.371210712296
aF4369.172559794606
aF3896.1671455705377
aF1689.698871522537
aF8211.209307528818
aF10442.586171731633
aF2590.526076064683
aF8330.383480825956
asS'Bacteroidota__Bacteroidia__Bacteroidales__Muribaculaceae__Muribaculaceae__uncultured_bacterium__ASV1149'
p411
(lp412
F0.0
aF0.0
aF0.0
aF0.0
aF0.0
aF5511.479323176299
aF125.53036579548585
aF0.0
aF1426.1587539876175
aF1795.811391268471
aF7909.3402504624355
aF0.0
aF0.0
aF0.0
aF0.0
aF0.0
aF0.0
aF2824.721180538646
aF0.0
aF6846.403400827838
aF0.0
aF1167.1601002049686
aF2572.271386430681
asS'Firmicutes__Clostridia__Lachnospirales__Lachnospiraceae__NA__NA__ASV646'
p413
(lp414
F0.0
aF0.0
aF1412.4293785310774
aF2763.828876172682
aF343.24662269840917
aF0.0
aF0.0
aF631.8507733304031
aF0.0
aF703.763923605213
aF0.0
aF0.0
aF0.0
aF0.0
aF318.5474237477099
aF0.0
aF517.9946849241021
aF0.0
aF0.0
aF0.0
aF0.0
aF0.0
aF0.0
asS'Firmicutes__Clostridia__Lachnospirales__Lachnospiraceae__GCA_900066575__uncultured_bacterium__ASV1369'
p415
(lp416
F273.26476871863673
aF355.1136363636358
aF359.09221488078094
aF0.0
aF0.0
aF0.0
aF0.0
aF0.0
aF0.0
aF0.0
aF382.71001211914995
aF0.0
aF251.762336354481
aF0.0
aF0.0
aF0.0
aF360.34412864285434
aF121.7552232990793
aF221.2700903184274
aF0.0
aF0.0
aF0.0
aF0.0
asS'Firmicutes__Clostridia__Oscillospirales__Ruminococcaceae__Anaerotruncus__uncultured_bacterium__ASV1364'
p417
(lp418
F0.0
aF2349.213286713289
aF0.0
aF778.5433454007557
aF661.9756294897882
aF631.8893491539708
aF125.53036579548585
aF0.0
aF1088.3843122537023
aF2014.2208848011276
aF0.0
aF205.03988025670992
aF0.0
aF684.0985101854667
aF0.0
aF116.23581923005348
aF0.0
aF73.05313397944768
aF784.5030474926075
aF156.61707126076797
aF0.0
aF0.0
aF259.58702064896784
asS'Bacteroidota__Bacteroidia__Bacteroidales__Bacteroidaceae__Bacteroides__Bacteroides_vulgatus__ASV287'
p419
(lp420
F0.0
aF0.0
aF0.0
aF0.0
aF122.58807953514612
aF0.0
aF0.0
aF0.0
aF150.12197410395942
aF436.8189870653042
aF0.0
aF0.0
aF0.0
aF152.02189115232582
aF0.0
aF0.0
aF135.12904824106977
aF170.45731261871103
aF0.0
aF492.2250811052693
aF0.0
aF0.0
aF0.0
asS'Bacteroidota__Bacteroidia__Bacteroidales__Rikenellaceae__Alistipes__uncultured_bacterium__ASV1333'
p421
(lp422
F0.0
aF0.0
aF0.0
aF0.0
aF0.0
aF18605.63083620024
aF251.0607315909717
aF0.0
aF0.0
aF64309.461984614274
aF11289.945357514927
aF61.511964077012976
aF0.0
aF0.0
aF0.0
aF17621.350195276136
aF0.0
aF413.96775921687066
aF0.0
aF12641.235037476234
aF0.0
aF341.60783420633175
aF2123.8938053097295
asS'Firmicutes__Bacilli__Erysipelotrichales__Erysipelotrichaceae__Dubosiella__uncultured_bacterium__ASV1387'
p423
(lp424
F1366.3238435931887
aF3332.6048951048983
aF9144.881738963899
aF17283.662267896816
aF15568.686100963574
aF12918.626693814487
aF8762.019532524924
aF4780.088459108265
aF10358.416213173166
aF4416.7253136603
aF11523.823698254424
aF3506.1819523897384
aF18284.239677744165
aF13681.970203709354
aF23864.511162432646
aF18876.69704296074
aF9323.904328633847
aF7524.472799883116
aF3821.9379236819373
aF18794.048551292075
aF23149.092392412822
aF4270.097927579142
aF18359.88200589965
asS'Firmicutes__Clostridia__Lachnospirales__Lachnospiraceae__NA__NA__ASV1192'
p425
(lp426
F447.1605306304973
aF327.79720279720283
aF311.21325289667664
aF544.9803417805294
aF147.10569544217535
aF491.4694937864219
aF276.1668047500693
aF329.66127304194924
aF337.77444173390916
aF630.9607590943288
aF892.9900282780166
aF738.1435689241556
aF660.8761329305137
aF506.7396371744191
aF345.0930423933527
aF790.4035707643665
aF247.73658844196257
aF0.0
aF241.38555307464844
aF268.48640787560106
aF367.1221700999389
aF227.73855613755387
aF283.1858407079643
asS'Firmicutes__Bacilli__Acholeplasmatales__Acholeplasmataceae__Anaeroplasma__uncultured_bacterium__ASV374'
p427
(lp428
F0.0
aF0.0
aF0.0
aF6500.836934096315
aF13705.347292029368
aF4563.645299445343
aF0.0
aF0.0
aF5029.086132482639
aF2499.575314873689
aF1552.1017158165498
aF0.0
aF0.0
aF48799.02705989656
aF0.0
aF0.0
aF1171.11841808928
aF1485.4137242487736
aF15730.291875364599
aF0.0
aF0.0
aF0.0
aF0.0
asS'Firmicutes__Clostridia__Lachnospirales__Lachnospiraceae__NA__NA__ASV1190'
p429
(lp430
F621.0562925423569
aF682.9108391608387
aF143.636885952312
aF0.0
aF0.0
aF0.0
aF502.1214631819434
aF769.2096370978815
aF0.0
aF218.40949353265262
aF829.2050262581588
aF5269.524922597438
aF1038.5196374622346
aF557.4136008918617
aF1433.4634068647003
aF325.46029384415056
aF472.9516688437462
aF535.72298251595
aF422.42471788063483
aF6958.272737442675
aF203.9567611666325
aF1565.7025734456815
aF0.0
asS'Bacteroidota__Bacteroidia__Bacteroidales__Muribaculaceae__Muribaculaceae__uncultured_Bacteroidales__ASV1409'
p431
(lp432
F0.0
aF0.0
aF0.0
aF0.0
aF0.0
aF22010.81232886327
aF1531.4704627049298
aF0.0
aF5892.287483580412
aF18953.090494333475
aF21665.639019411883
aF0.0
aF0.0
aF0.0
aF185.81933051949724
aF0.0
aF0.0
aF23182.194516144733
aF0.0
aF14408.770555990624
aF27391.3930246788
aF27357.09405602369
aF18879.056047197653
asS'Firmicutes__Clostridia__Lachnospirales__Lachnospiraceae__uncultured__uncultured_bacterium__ASV502'
p433
(lp434
F0.0
aF0.0
aF0.0
aF0.0
aF367.7642386054384
aF561.6794214701958
aF0.0
aF0.0
aF0.0
aF0.0
aF0.0
aF0.0
aF0.0
aF0.0
aF0.0
aF0.0
aF0.0
aF0.0
aF764.3875847363875
aF0.0
aF0.0
aF0.0
aF0.0
asS'Firmicutes__Clostridia__Lachnospirales__Lachnospiraceae__GCA_900066575__uncultured_bacterium__ASV794'
p435
(lp436
F0.0
aF409.74650349650284
aF0.0
aF0.0
aF441.31708632652607
aF0.0
aF0.0
aF0.0
aF0.0
aF582.4253160870726
aF0.0
aF0.0
aF0.0
aF0.0
aF0.0
aF0.0
aF0.0
aF0.0
aF382.1937923681937
aF0.0
aF224.35243728329652
aF0.0
aF283.1858407079643
asS'Actinobacteriota__Coriobacteriia__Coriobacteriales__Eggerthellaceae__Enterorhabdus__NA__ASV425'
p437
(lp438
F0.0
aF0.0
aF0.0
aF0.0
aF0.0
aF561.6794214701958
aF426.80324370465263
aF521.9636823164201
aF412.83542878588895
aF0.0
aF382.71001211914995
aF0.0
aF0.0
aF0.0
aF0.0
aF0.0
aF337.8226206026754
aF340.91462523742206
aF0.0
aF917.3285602416383
aF0.0
aF455.4771122751087
aF778.7610619469026
asS'Firmicutes__Clostridia__Lachnospirales__Lachnospiraceae__NA__NA__ASV1215'
p439
(lp440
F0.0
aF1475.0874125874093
aF0.0
aF506.05317451049143
aF318.7290067913799
aF491.4694937864219
aF0.0
aF0.0
aF450.36592231187825
aF533.8898730798164
aF0.0
aF389.5757724877488
aF0.0
aF304.04378230465164
aF0.0
aF418.4489492281941
aF0.0
aF0.0
aF402.30925512441473
aF0.0
aF530.2875790332453
aF0.0
aF165.1917404129791
asS'Bacteroidota__Bacteroidia__Bacteroidales__Muribaculaceae__Muribaculaceae__unidentified__ASV1308'
p441
(lp442
F124.21125850847098
aF519.0122377622378
aF129081.68150914524
aF109657.83019969608
aF42317.405055532385
aF57396.61588148571
aF56338.0281690141
aF2499.9313205681165
aF42634.64064552445
aF142621.39927682202
aF42353.24134118594
aF389.5757724877488
aF0.0
aF101.34792743488421
aF0.0
aF883.39222614841
aF0.0
aF37403.20459747724
aF181.03916480598633
aF53809.15091173513
aF108280.6445033651
aF52749.94306536101
aF53404.129793510256
asS'Bacteroidota__Bacteroidia__Bacteroidales__Muribaculaceae__Muribaculaceae__uncultured_Bacteroidales__ASV1403'
p443
(lp444
F670.7407959457455
aF1365.8216783216794
aF32270.420377286217
aF144497.64490638013
aF27214.55365680243
aF97240.74984202768
aF305114.10710250796
aF366033.90016757796
aF107299.68099080538
aF17861.043026670195
aF141347.5644760063
aF127534.80551967394
aF204966.01208459208
aF912.131346913955
aF342093.3874863955
aF260321.74074762902
aF329174.3615152469
aF346150.09983928315
aF294892.6840061959
aF152925.3831524777
aF12543.340811747916
aF9451.150079708497
aF90123.89380530965
asS'Firmicutes__Clostridia__Oscillospirales__Oscillospiraceae__Oscillibacter__uncultured_bacterium__ASV1272'
p445
(lp446
F0.0
aF0.0
aF0.0
aF0.0
aF0.0
aF0.0
aF0.0
aF0.0
aF0.0
aF339.74810105079194
aF574.0650181787255
aF389.5757724877488
aF0.0
aF0.0
aF0.0
aF232.47163846010798
aF292.7796045223185
aF0.0
aF704.0411964677253
aF0.0
aF0.0
aF0.0
aF0.0
asS'Bacteroidota__Bacteroidia__Bacteroidales__Muribaculaceae__Muribaculaceae__uncultured_Bacteroidales__ASV1374'
p447
(lp448
F0.0
aF0.0
aF0.0
aF0.0
aF0.0
aF8916.660815839366
aF627.6518289774292
aF0.0
aF4278.476261962843
aF7789.938602664595
aF10205.600323177312
aF0.0
aF0.0
aF0.0
aF0.0
aF0.0
aF0.0
aF10154.385623143236
aF0.0
aF7271.506879964203
aF16275.749541097322
aF18076.74789341832
aF11044.247787610642
asS'Firmicutes__Bacilli__Erysipelotrichales__Erysipelatoclostridiaceae__Erysipelatoclostridium__unidentified__ASV419'
p449
(lp450
F1266.9548367864097
aF519.0122377622378
aF311.21325289667664
aF0.0
aF269.6937749773215
aF0.0
aF225.95465843187512
aF384.6048185489407
aF0.0
aF145.6063290217684
aF0.0
aF0.0
aF188.8217522658605
aF0.0
aF0.0
aF511.43760461223775
aF180.1720643214267
aF73.05313397944768
aF221.2700903184274
aF0.0
aF693.4529879665517
aF0.0
aF235.98820058997043
asS'Firmicutes__Clostridia__Lachnospirales__Lachnospiraceae__NA__NA__ASV1354'
p451
(lp452
F0.0
aF737.5437062937057
aF574.54754380925
aF0.0
aF392.28185451246765
aF0.0
aF979.1368532047902
aF0.0
aF487.89641583786863
aF2038.4886063047516
aF1211.9150383773128
aF2788.5423714912586
aF377.643504531722
aF278.70680044593087
aF371.63866103899545
aF767.1564069183555
aF202.69357236160565
aF0.0
aF764.3875847363875
aF1924.1525897751444
aF795.4313685498679
aF455.4771122751087
aF235.98820058997043
asS'Actinobacteriota__Coriobacteriia__Coriobacteriales__Eggerthellaceae__Enterorhabdus__uncultured_bacterium__ASV330'
p453
(lp454
F0.0
aF300.48076923076883
aF95.75792396820837
aF0.0
aF98.07046362811681
aF0.0
aF0.0
aF0.0
aF0.0
aF0.0
aF318.92501009929214
aF369.0717844620778
aF125.881168177241
aF253.36981858721003
aF212.36494916513996
aF325.46029384415056
aF157.65055628124873
aF121.7552232990793
aF362.07832961197266
aF559.3466830741696
aF407.913522333266
aF0.0
aF188.79056047197653
asS'Firmicutes__Clostridia__Oscillospirales__Ruminococcaceae__uncultured__uncultured_bacterium__ASV1314'
p455
(lp456
F2633.2786803795884
aF1201.9230769230794
aF1340.6109355549193
aF0.0
aF0.0
aF561.6794214701958
aF1054.455072682084
aF851.6249553583693
aF1463.6892475136058
aF0.0
aF2721.4934195139567
aF1476.2871378483094
aF597.9355488418933
aF0.0
aF0.0
aF0.0
aF0.0
aF0.0
aF1247.1586908856843
aF0.0
aF0.0
aF0.0
aF0.0
asS'Firmicutes__Bacilli__Erysipelotrichales__Erysipelotrichaceae__uncultured__unidentified__ASV853'
p457
(lp458
F645.8985442440506
aF0.0
aF0.0
aF0.0
aF0.0
aF0.0
aF200.84858527277754
aF0.0
aF0.0
aF0.0
aF0.0
aF492.0957126161038
aF0.0
aF1140.1641836424462
aF0.0
aF0.0
aF0.0
aF0.0
aF201.15462756220737
aF0.0
aF3304.099530899456
aF227.73855613755387
aF0.0
asS'Firmicutes__Clostridia__Lachnospirales__Lachnospiraceae__Lachnospiraceae_NK4A136_group__uncultured_bacterium__ASV752'
p459
(lp460
F2260.6449048541813
aF6528.627622377618
aF646.365986785406
aF11756.00451555141
aF0.0
aF3721.1261672400474
aF1104.667219000275
aF302.1895002884539
aF6905.610808782137
aF0.0
aF1849.765058575891
aF1004.6954132578796
aF3335.850956696879
aF810.7834194790709
aF1088.3703644713457
aF1487.8184861446914
aF225.2150804017836
aF681.8292504748451
aF1931.0844245971896
aF0.0
aF4446.257393432593
aF0.0
aF1817.1091445427728
asS'Firmicutes__Clostridia__Clostridia_UCG_014__Clostridia_UCG_014__Clostridia_UCG_014__NA__ASV206'
p461
(lp462
F0.0
aF0.0
aF0.0
aF0.0
aF3383.430995170035
aF1123.3588429403876
aF11473.475433707445
aF3406.499821433481
aF0.0
aF800.8348096197242
aF7994.386919822247
aF28808.103176067685
aF12399.295065458215
aF2128.30647613256
aF5680.7623901675
aF6392.970057652961
aF3423.2692221071156
aF6599.133102810104
aF0.0
aF0.0
aF163.1654089333064
aF910.9542245502164
aF330.3834808259582
asS'Firmicutes__Clostridia__Lachnospirales__Lachnospiraceae__Roseburia__uncultured_bacterium__ASV1193'
p463
(lp464
F0.0
aF0.0
aF0.0
aF700.6890108606806
aF0.0
aF421.25956610264683
aF0.0
aF0.0
aF412.83542878588895
aF1747.2759482612128
aF0.0
aF0.0
aF0.0
aF1494.8819296645395
aF0.0
aF0.0
aF0.0
aF0.0
aF0.0
aF0.0
aF632.2659596165614
aF0.0
aF283.1858407079643
asS'Firmicutes__Clostridia__Oscillospirales__Oscillospiraceae__Oscillibacter__unidentified__ASV1438'
p465
(lp466
F1366.3238435931887
aF3960.882867132868
aF550.6080628171974
aF5255.1675814551045
aF1520.09218623581
aF1369.0935898336031
aF778.2882679320126
aF521.9636823164201
aF2439.4820791893435
aF1941.4177202902454
aF1594.6250504964557
aF2132.4147546697786
aF1258.81168177241
aF0.0
aF637.0948474954209
aF813.6507346103773
aF563.0377010044591
aF487.0208931963182
aF6436.948081990631
aF0.0
aF1284.9275953497902
aF939.4215440674109
aF637.1681415929199
asS'Bacteroidota__Bacteroidia__Bacteroidales__Rikenellaceae__Alistipes__uncultured_bacterium__ASV1418'
p467
(lp468
F0.0
aF4725.743006993008
aF790.0028727377189
aF0.0
aF0.0
aF1193.5687706241706
aF4845.472119705754
aF0.0
aF6830.549821730161
aF3033.4651879534986
aF850.4666935981116
aF4326.341473416578
aF1982.6283987915372
aF0.0
aF0.0
aF3161.6142830574677
aF0.0
aF0.0
aF5571.983183473142
aF0.0
aF0.0
aF0.0
aF1085.5457227138622
asS'Firmicutes__Clostridia__Lachnospirales__Lachnospiraceae__NA__NA__ASV1393'
p469
(lp470
F1043.3745714711613
aF382.4300699300698
aF335.1527338887293
aF0.0
aF0.0
aF0.0
aF753.1821947729161
aF357.13304579544547
aF0.0
aF0.0
aF361.448344779197
aF266.5518443337229
aF314.7029204431015
aF0.0
aF0.0
aF0.0
aF292.7796045223185
aF267.8614912579745
aF0.0
aF201.3648059067008
aF0.0
aF0.0
aF0.0
asS'Bacteroidota__Bacteroidia__Bacteroidales__Muribaculaceae__Muribaculaceae__NA__ASV557'
p471
(lp472
F0.0
aF0.0
aF0.0
aF0.0
aF0.0
aF61047.53212104198
aF5724.184680274159
aF12060.108238784605
aF79151.81084631261
aF16890.334166525132
aF39397.86958093254
aF49209.57126161038
aF25427.995971802644
aF0.0
aF27554.352154176922
aF650.9205876883021
aF28872.573307508712
aF9423.85428334875
aF0.0
aF19756.124846179664
aF79808.28064450336
aF65332.49829196085
aF42997.0501474926
asS'Firmicutes__Clostridia__Oscillospirales__Oscillospiraceae__Colidextribacter__uncultured_bacterium__ASV603'
p473
(lp474
F720.4252993491341
aF0.0
aF406.97117686488536
aF0.0
aF0.0
aF561.6794214701958
aF401.6971705455551
aF0.0
aF0.0
aF0.0
aF0.0
aF799.6555330011687
aF0.0
aF658.761528326745
aF0.0
aF0.0
aF315.30111256249745
aF0.0
aF0.0
aF0.0
aF0.0
aF512.4117513094967
aF0.0
asS'Firmicutes__Bacilli__Erysipelotrichales__Erysipelotrichaceae__Turicibacter__NA__ASV1241'
p475
(lp476
F99.3690068067771
aF0.0
aF5003.3515273388875
aF7551.870450387337
aF5075.146492755042
aF2387.137541248331
aF1054.455072682084
aF219.77418202796613
aF2552.0735597673083
aF364.01582255442
aF3316.820105032639
aF0.0
aF5633.182275931525
aF177.35887301104665
aF3689.8409917443087
aF1952.7617630649092
aF202.69357236160565
aF219.15940193834274
aF0.0
aF514.5989484282358
aF326.3308178666128
aF85.40195855158285
aF613.5693215339235
asS'Firmicutes__Clostridia__Lachnospirales__Lachnospiraceae__Lachnospiraceae_NK4A136_group__NA__ASV1419'
p477
(lp478
F0.0
aF54.63286713286708
aF0.0
aF77.85433454007556
aF73.55284772108757
aF0.0
aF0.0
aF0.0
aF0.0
aF194.14177202902454
aF0.0
aF0.0
aF0.0
aF0.0
aF0.0
aF46.49432769202159
aF0.0
aF0.0
aF160.9237020497653
aF0.0
aF0.0
aF0.0
aF47.197640117994084
asS'Firmicutes__Clostridia__Clostridia_vadinBB60_group__Clostridia_vadinBB60_group__Clostridia_vadinBB60_group__uncultured_bacterium__ASV1315'
p479
(lp480
F621.0562925423569
aF491.6958041958038
aF0.0
aF0.0
aF0.0
aF0.0
aF276.1668047500693
aF0.0
aF300.24394820791883
aF169.87405052539646
aF0.0
aF246.0478563080519
aF440.58408862034247
aF0.0
aF0.0
aF0.0
aF270.2580964821405
aF0.0
aF523.002031661739
aF0.0
aF0.0
aF0.0
aF0.0
asS'Firmicutes__Clostridia__Lachnospirales__Lachnospiraceae__NA__NA__ASV221'
p481
(lp482
F1937.695632732154
aF0.0
aF0.0
aF0.0
aF0.0
aF0.0
aF0.0
aF0.0
aF750.6098705197971
aF0.0
aF0.0
aF0.0
aF1038.5196374622346
aF0.0
aF0.0
aF0.0
aF0.0
aF0.0
aF1186.8123026170263
aF536.9728157512031
aF448.7048745665921
aF0.0
aF0.0
asS'Bacteroidota__Bacteroidia__Bacteroidales__Muribaculaceae__Muribaculaceae__uncultured_Bacteroidales__ASV635'
p483
(lp484
F0.0
aF39281.03146853148
aF11706.406205113464
aF14441.979057184011
aF3285.360531541912
aF0.0
aF125.53036579548585
aF0.0
aF0.0
aF0.0
aF0.0
aF0.0
aF0.0
aF0.0
aF0.0
aF0.0
aF0.0
aF0.0
aF0.0
aF0.0
aF40.7913522333266
aF0.0
aF0.0
asS'Bacteroidota__Bacteroidia__Bacteroidales__Bacteroidaceae__Bacteroides__Bacteroides_acidifaciens__ASV14'
p485
(lp486
F0.0
aF491.6958041958038
aF167.57636694436465
aF0.0
aF343.24662269840917
aF280.8397107350979
aF200.84858527277754
aF0.0
aF0.0
aF412.5512655616762
aF255.1400080794333
aF676.6316048471426
aF125.881168177241
aF126.68490929360502
aF477.8211356215654
aF0.0
aF0.0
aF316.56358057760616
aF140.80823929354526
aF492.2250811052693
aF407.913522333266
aF284.67319517194284
aF0.0
asS'Bacteroidota__Bacteroidia__Bacteroidales__Bacteroidaceae__Bacteroides__Bacteroides_plebeius__ASV1063'
p487
(lp488
F99.3690068067771
aF81.94930069930066
aF143.636885952312
aF77.85433454007556
aF196.14092725623382
aF0.0
aF0.0
aF0.0
aF0.0
aF194.14177202902454
aF0.0
aF61.511964077012976
aF0.0
aF202.69585486976743
aF265.4561864564254
aF139.48298307606436
aF0.0
aF0.0
aF0.0
aF111.86933661483411
aF101.97838058331625
aF113.86927806877694
aF94.39528023598817
asS'Firmicutes__Clostridia__Lachnospirales__Lachnospiraceae__Lachnospiraceae_NK4A136_group__uncultured_bacterium__ASV1358'
p489
(lp490
F1788.6421225219851
aF2157.998251748249
aF1316.6714545628665
aF973.1791817509447
aF392.28185451246765
aF0.0
aF1154.8793653184662
aF988.9838191258486
aF900.7318446237565
aF1358.9924042031678
aF1424.531711776832
aF2029.894814541429
aF1951.1581067472266
aF2001.6215668389555
aF318.5474237477099
aF325.46029384415056
aF1599.0270708526682
aF267.8614912579745
aF1227.0432281294684
aF581.720550397137
aF407.913522333266
aF170.80391710316587
aF495.57522123893824
asS'Firmicutes__Clostridia__Lachnospirales__Lachnospiraceae__Lachnospiraceae_NK4A136_group__uncultured_Clostridiales__ASV838'
p491
(lp492
F0.0
aF0.0
aF0.0
aF0.0
aF0.0
aF0.0
aF0.0
aF384.6048185489407
aF0.0
aF169.87405052539646
aF0.0
aF0.0
aF157.35146022155075
aF0.0
aF0.0
aF371.95462153617234
aF0.0
aF194.8083572785269
aF0.0
aF402.72961181340264
aF122.37405669997929
aF5294.921430198134
aF448.3775811209434
asS'Firmicutes__Bacilli__Erysipelotrichales__Erysipelatoclostridiaceae__Erysipelatoclostridium__NA__ASV771'
p493
(lp494
F1962.537884433844
aF1557.0367132867093
aF1532.1267834913308
aF544.9803417805294
aF686.4932453968173
aF491.4694937864219
aF2410.1830232733346
aF6373.451278811026
aF750.6098705197971
aF1358.9924042031678
aF786.6816915782529
aF1558.3030899509993
aF1258.81168177241
aF2204.317421708726
aF796.3685593692754
aF2650.176678445226
aF4549.344624116034
aF1314.9564116300605
aF2977.0884879206633
aF3646.9403736435884
aF6852.94717519886
aF4668.640400819865
aF2949.85250737463
asS'Bacteroidota__Bacteroidia__Bacteroidales__Muribaculaceae__Muribaculaceae__NA__ASV1440'
p495
(lp496
F173.89576191185958
aF300.48076923076883
aF0.0
aF0.0
aF0.0
aF0.0
aF0.0
aF0.0
aF0.0
aF0.0
aF170.09333871962252
aF246.0478563080519
aF0.0
aF304.04378230465164
aF0.0
aF0.0
aF0.0
aF0.0
aF201.15462756220737
aF0.0
aF265.14378951662263
aF0.0
aF212.38938053097297
asS'Bacteroidota__Bacteroidia__Bacteroidales__Muribaculaceae__Muribaculum__NA__ASV32'
p497
(lp498
F161176.529040592
aF95061.18881118875
aF20276.74040026814
aF1634.9410253415913
aF24517.615907029227
aF0.0
aF0.0
aF0.0
aF0.0
aF0.0
aF191.3550060595755
aF82.01595210268395
aF0.0
aF0.0
aF212.36494916513996
aF0.0
aF0.0
aF3847.465056250914
aF140.80823929354526
aF1499.0491106387794
aF38588.619212726924
aF0.0
aF7268.436578171091
asS'Firmicutes__Clostridia__Oscillospirales__Oscillospiraceae__NA__NA__ASV659'
p499
(lp500
F5192.030605654108
aF0.0
aF0.0
aF0.0
aF3579.571922426261
aF0.0
aF0.0
aF0.0
aF0.0
aF0.0
aF0.0
aF0.0
aF692.3464249748234
aF4940.711462450587
aF0.0
aF0.0
aF0.0
aF3043.8805824769825
aF1408.0823929354526
aF0.0
aF3650.8260248827296
aF0.0
aF0.0
asS'Firmicutes__Clostridia__Lachnospirales__Lachnospiraceae__NA__NA__ASV454'
p501
(lp502
F0.0
aF37942.526223776185
aF10772.766446423399
aF14636.614893534213
aF14269.252457891049
aF18535.420908516426
aF11121.990409480066
aF3791.1046399824227
aF19027.960217676904
aF5775.717717863468
aF9036.208619479936
aF29443.726804863483
aF0.0
aF18622.68166615987
aF4380.027076531018
aF7229.8679561093495
aF0.0
aF0.0
aF35383.09898819228
aF0.0
aF6200.285539465641
aF0.0
aF7410.029498525067
asS'Firmicutes__Clostridia__Lachnospirales__Lachnospiraceae__uncultured__uncultured_bacterium__ASV141'
p503
(lp504
F968.847816366076
aF0.0
aF478.7896198410413
aF0.0
aF392.28185451246765
aF351.04963841887286
aF0.0
aF934.0402736188561
aF638.018389941828
aF0.0
aF191.3550060595755
aF0.0
aF0.0
aF557.4136008918617
aF0.0
aF0.0
aF0.0
aF0.0
aF0.0
aF0.0
aF346.7264939832759
aF0.0
aF0.0
asS'Firmicutes__Clostridia__Lachnospirales__Lachnospiraceae__Lachnospiraceae_NK4A136_group__NA__ASV1188'
p505
(lp506
F2583.594176976209
aF2212.6311188811187
aF0.0
aF9848.573319319557
aF367.7642386054384
aF2141.402794355126
aF1958.2737064095843
aF0.0
aF3828.110339650962
aF4368.189870653043
aF0.0
aF0.0
aF0.0
aF1824.262693827914
aF451.2755169759227
aF0.0
aF0.0
aF0.0
aF2816.1647858708952
aF0.0
aF6954.925555782176
aF0.0
aF1769.9115044247783
asS'Bacteroidota__Bacteroidia__Bacteroidales__Muribaculaceae__Muribaculaceae__uncultured_Bacteroidales__ASV520'
p507
(lp508
F0.0
aF8440.777972027967
aF5434.262185195825
aF0.0
aF30401.8437247162
aF10847.433827143206
aF0.0
aF17719.293426004813
aF8782.135485081626
aF10338.049360545534
aF18540.173920438847
aF17018.31006130689
aF4028.1973816717064
aF0.0
aF0.0
aF8810.675097638088
aF5112.382325120488
aF4626.698485365024
aF0.0
aF15572.211656784862
aF23393.840505812826
aF3900.0227738556187
aF9132.74336283185
asS'Proteobacteria__Gammaproteobacteria__Burkholderiales__Comamonadaceae__Aquabacterium__NA__ASV4'
p509
(lp510
F0.0
aF0.0
aF167.57636694436465
aF0.0
aF0.0
aF140.41985536754896
aF0.0
aF192.30240927447088
aF112.59148057797006
aF194.14177202902454
aF63.785002019858325
aF0.0
aF0.0
aF0.0
aF0.0
aF0.0
aF0.0
aF0.0
aF0.0
aF111.86933661483411
aF81.5827044666531
aF0.0
aF94.39528023598817
asS'Firmicutes__Clostridia__Clostridia_vadinBB60_group__Clostridia_vadinBB60_group__Clostridia_vadinBB60_group__uncultured_bacterium__ASV998'
p511
(lp512
F0.0
aF0.0
aF0.0
aF0.0
aF0.0
aF0.0
aF8008.8373377520065
aF3873.51995824291
aF0.0
aF0.0
aF0.0
aF0.0
aF5633.182275931525
aF0.0
aF690.1860847867054
aF46.49432769202159
aF0.0
aF0.0
aF0.0
aF447.4773464593355
aF1611.258413216395
aF1024.8235026189914
aF188.79056047197653
asS'Firmicutes__Clostridia__Oscillospirales__UCG_010__UCG_010__uncultured_organism__ASV850'
p513
(lp514
F0.0
aF0.0
aF1651.824188451594
aF350.3445054303403
aF0.0
aF386.15460226075936
aF175.74251211368
aF0.0
aF0.0
aF0.0
aF0.0
aF0.0
aF534.9949647532727
aF0.0
aF132.7280932282127
aF0.0
aF698.1667492455298
aF389.6167145570538
aF0.0
aF0.0
aF0.0
aF0.0
aF519.1740412979348
asS'Firmicutes__Clostridia__Oscillospirales__Oscillospiraceae__NA__NA__ASV154'
p515
(lp516
F0.0
aF0.0
aF0.0
aF0.0
aF0.0
aF0.0
aF1079.5611458411795
aF0.0
aF0.0
aF0.0
aF892.9900282780166
aF1353.2632096942896
aF1101.4602215508562
aF0.0
aF0.0
aF0.0
aF0.0
aF0.0
aF0.0
aF469.8512137823029
aF0.0
aF0.0
aF0.0
asS'Firmicutes__Bacilli__Erysipelotrichales__Erysipelotrichaceae__Dubosiella__uncultured_bacterium__ASV61'
p517
(lp518
F397.4760272271087
aF1802.884615384619
aF7756.391841424874
aF14870.177897154412
aF15004.780935101893
aF10601.699080249959
aF7632.246240365543
aF4889.9755501222535
aF11859.635954212801
aF4319.654427645784
aF10333.17032721702
aF3977.7736769801686
aF16049.84894259818
aF15227.526097091293
aF21050.675585994515
aF17481.867212200126
aF9166.2537723526
aF7743.632201821452
aF3520.2059823386267
aF17943.841593019406
aF21027.94207627988
aF4896.37895695741
aF18005.89970501479
asS'Bacteroidota__Bacteroidia__Bacteroidales__Muribaculaceae__Muribaculaceae__uncultured_Bacteroidales__ASV1452'
p519
(lp520
F0.0
aF0.0
aF0.0
aF0.0
aF0.0
aF105.31489152566147
aF301.27287790916586
aF0.0
aF863.2013510977671
aF72.8031645108841
aF63.785002019858325
aF123.02392815402595
aF62.940584088620305
aF0.0
aF265.4561864564254
aF46.49432769202159
aF45.04301608035672
aF73.05313397944768
aF0.0
aF22.373867322966824
aF142.76973281664334
aF284.67319517194284
aF235.98820058997043
asS'Firmicutes__Clostridia__Lachnospirales__Lachnospiraceae__Lachnospiraceae_NK4A136_group__unidentified__ASV1279'
p521
(lp522
F2210.960401450792
aF2076.048951048949
aF1244.8530115867088
aF2179.921367122112
aF3653.124770147356
aF2176.507758197012
aF0.0
aF0.0
aF1613.8112216175593
aF3543.087339529694
aF0.0
aF0.0
aF0.0
aF0.0
aF0.0
aF0.0
aF0.0
aF0.0
aF482.7711061492969
aF0.0
aF836.2227207831941
aF1964.245046686404
aF943.9528023598817
asS'Firmicutes__Clostridia__Oscillospirales__Oscillospiraceae__Oscillibacter__uncultured_bacterium__ASV846'
p523
(lp524
F1366.3238435931887
aF0.0
aF837.8818347218223
aF0.0
aF0.0
aF596.7843853120833
aF1079.5611458411795
aF1263.7015466608043
aF0.0
aF0.0
aF1403.270044436884
aF553.6076766931168
aF881.1681772406849
aF0.0
aF982.1878898887735
aF348.70745769016145
aF1936.8496914553427
aF0.0
aF482.7711061492969
aF1364.805906700979
aF0.0
aF0.0
aF0.0
asS'Firmicutes__Clostridia__Clostridia_vadinBB60_group__Clostridia_vadinBB60_group__Clostridia_vadinBB60_group__unidentified__ASV394'
p525
(lp526
F0.0
aF7785.183566433567
aF0.0
aF0.0
aF0.0
aF0.0
aF0.0
aF0.0
aF0.0
aF0.0
aF0.0
aF1742.8389821820292
aF0.0
aF0.0
aF0.0
aF1348.33550306863
aF2612.4949326606916
aF511.3719378561341
aF2796.0493231146793
aF0.0
aF0.0
aF0.0
aF0.0
asS'Bacteroidota__Bacteroidia__Bacteroidales__Muribaculaceae__Muribaculaceae__uncultured_bacterium__ASV397'
p527
(lp528
F0.0
aF19531.249999999993
aF33012.54428803983
aF1596.0138580715513
aF69286.78255326452
aF14252.615319806235
aF778.2882679320126
aF0.0
aF2927.3784950272116
aF2038.4886063047516
aF12863.308740671455
aF47507.74025547968
aF25742.698892245753
aF153415.42515455582
aF26014.706272729632
aF22665.98474986055
aF61258.501869285115
aF23839.67272195974
aF0.0
aF12506.991833538434
aF30104.017948194956
aF28125.71168298791
aF31882.005899705022
asS'Bacteroidota__Bacteroidia__Bacteroidales__Rikenellaceae__Alistipes__uncultured_bacterium__ASV326'
p529
(lp530
F154493.9633328364
aF85363.85489510486
aF598.4870248013017
aF0.0
aF1642.6802657709611
aF22396.96693112404
aF451.90931686374927
aF219.77418202796613
aF0.0
aF145.6063290217684
aF85.04666935981116
aF225.5438682823809
aF0.0
aF253.36981858721003
aF318.5474237477099
aF441.696113074205
aF27453.71830097743
aF5040.666244581886
aF0.0
aF5235.4849535742305
aF23679.379971446055
aF11785.470280118445
aF1864.3067846607678
asS'Firmicutes__Clostridia__Lachnospirales__Lachnospiraceae__NA__NA__ASV193'
p531
(lp532
F0.0
aF0.0
aF0.0
aF0.0
aF0.0
aF737.2042406796322
aF627.6518289774292
aF0.0
aF0.0
aF0.0
aF0.0
aF902.1754731295237
aF472.05438066465223
aF481.4026553156983
aF0.0
aF0.0
aF608.0807170848159
aF560.0740271757658
aF0.0
aF0.0
aF326.3308178666128
aF0.0
aF0.0
asS'Firmicutes__Bacilli__RF39__RF39__RF39__unidentified__ASV17'
p533
(lp534
F0.0
aF0.0
aF0.0
aF0.0
aF0.0
aF0.0
aF1355.7279505912506
aF192.30240927447088
aF0.0
aF630.9607590943288
aF0.0
aF0.0
aF346.17321248741223
aF278.70680044593087
aF106.18247458256998
aF348.70745769016145
aF0.0
aF0.0
aF0.0
aF0.0
aF0.0
aF370.07515372352526
aF0.0
asS'Firmicutes__Clostridia__Oscillospirales__Oscillospiraceae__uncultured__NA__ASV103'
p535
(lp536
F4595.816564813443
aF1557.0367132867093
aF2154.55328928469
aF4009.498228813893
aF441.31708632652607
aF0.0
aF2184.2283648414545
aF934.0402736188561
aF0.0
aF291.21265804353584
aF1382.008377096926
aF1148.2233294375794
aF1667.9254783484396
aF0.0
aF1088.3703644713457
aF418.4489492281941
aF0.0
aF0.0
aF1609.237020497653
aF0.0
aF183.56108504996945
aF626.2810293782736
aF0.0
asS'Bacteroidota__Bacteroidia__Bacteroidales__Muribaculaceae__Muribaculaceae__NA__ASV810'
p537
(lp538
F0.0
aF19940.99650349649
aF12496.409077851173
aF0.0
aF65020.71738544148
aF23134.171171803675
aF1606.7886821822165
aF40053.84467459683
aF20116.34452993054
aF25505.375300313077
aF39397.86958093254
aF38998.58522482618
aF7899.043303121849
aF0.0
aF0.0
aF18946.438534498746
aF10877.888383406183
aF10617.05547167969
aF0.0
aF34120.14766752432
aF45441.56638792576
aF8056.251423365984
aF22230.08849557525
asS'Firmicutes__Clostridia__Lachnospirales__Lachnospiraceae__uncultured__uncultured_bacterium__ASV1275'
p539
(lp540
F0.0
aF0.0
aF0.0
aF0.0
aF0.0
aF666.9943129958583
aF1606.7886821822165
aF2032.911183758688
aF0.0
aF0.0
aF0.0
aF2357.958622952159
aF3178.499496475326
aF228.03283672848823
aF0.0
aF0.0
aF0.0
aF0.0
aF362.07832961197266
aF939.7024275646048
aF122.37405669997929
aF0.0
aF0.0
asS'Firmicutes__Clostridia__Oscillospirales__Oscillospiraceae__Colidextribacter__NA__ASV869'
p541
(lp542
F0.0
aF0.0
aF813.9423537297707
aF544.9803417805294
aF0.0
aF737.2042406796322
aF0.0
aF576.9072278234116
aF825.6708575717769
aF630.9607590943288
aF0.0
aF1025.1994012835496
aF0.0
aF0.0
aF0.0
aF0.0
aF0.0
aF0.0
aF321.84740409953156
aF0.0
aF0.0
aF0.0
aF0.0
asS'Firmicutes__Clostridia__Lachnospirales__Lachnospiraceae__uncultured__uncultured_bacterium__ASV13'
p543
(lp544
F5589.506632881214
aF0.0
aF1340.6109355549193
aF2218.848534392152
aF0.0
aF0.0
aF853.6064874093043
aF0.0
aF1576.2807280915708
aF0.0
aF0.0
aF0.0
aF1825.2769385699935
aF785.44643762035
aF0.0
aF0.0
aF0.0
aF0.0
aF1770.1607225474213
aF0.0
aF0.0
aF0.0
aF0.0
asS'Firmicutes__Clostridia__Oscillospirales__Oscillospiraceae__uncultured__uncultured_bacterium__ASV460'
p545
(lp546
F1863.1688776270748
aF0.0
aF0.0
aF1673.8681926116215
aF0.0
aF0.0
aF0.0
aF1758.1934562237252
aF0.0
aF1116.3151891668872
aF1445.79337911679
aF0.0
aF0.0
aF0.0
aF0.0
aF0.0
aF1441.3765145714115
aF0.0
aF0.0
aF0.0
aF591.4746073832354
aF854.0195855158285
aF0.0
asS'Bacteroidota__Bacteroidia__Bacteroidales__Muribaculaceae__Muribaculaceae__uncultured_bacterium__ASV936'
p547
(lp548
F149.05351021016577
aF109.26573426573394
aF0.0
aF0.0
aF98.07046362811681
aF0.0
aF0.0
aF0.0
aF0.0
aF266.94493653990776
aF0.0
aF307.5598203850649
aF0.0
aF177.35887301104665
aF0.0
aF139.48298307606436
aF67.56452412053508
aF0.0
aF241.38555307464844
aF178.9909385837344
aF0.0
aF341.60783420633175
aF188.79056047197653
asS'Firmicutes__Clostridia__Lachnospirales__Lachnospiraceae__NA__NA__ASV1165'
p549
(lp550
F322.9492721220253
aF382.4300699300698
aF0.0
aF311.4173381603022
aF0.0
aF210.62978305132393
aF0.0
aF439.54836405593227
aF337.77444173390916
aF121.33860751814034
aF403.9716794591029
aF471.59172459043276
aF1007.049345417924
aF304.04378230465164
aF185.81933051949724
aF0.0
aF225.2150804017836
aF0.0
aF160.9237020497653
aF380.3557444904352
aF244.74811339995955
aF199.27123662036036
aF0.0
asS'Firmicutes__Clostridia__Oscillospirales__Butyricicoccaceae__UCG_009__uncultured_organism__ASV836'
p551
(lp552
F0.0
aF0.0
aF1077.27664464234
aF0.0
aF0.0
aF0.0
aF0.0
aF0.0
aF938.2623381497468
aF0.0
aF0.0
aF0.0
aF0.0
aF0.0
aF0.0
aF0.0
aF833.2957974865996
aF0.0
aF623.5793454428422
aF0.0
aF1040.1794819498314
aF654.7483488954681
aF0.0
asS'Bacteroidota__Bacteroidia__Bacteroidales__Marinifilaceae__Odoribacter__unidentified__ASV963'
p553
(lp554
F124.21125850847098
aF218.5314685314689
aF95.75792396820837
aF116.7815018101131
aF122.58807953514612
aF70.20992768377448
aF150.6364389545834
aF109.88709101398307
aF0.0
aF266.94493653990776
aF0.0
aF61.511964077012976
aF0.0
aF76.01094557616291
aF0.0
aF209.22447461409706
aF112.6075402008918
aF0.0
aF0.0
aF89.4954692918672
aF101.97838058331625
aF199.27123662036036
aF94.39528023598817
asS'Firmicutes__Clostridia__Clostridia_vadinBB60_group__Clostridia_vadinBB60_group__Clostridia_vadinBB60_group__unidentified__ASV1252'
p555
(lp556
F968.847816366076
aF0.0
aF454.8501388489897
aF428.19883997041535
aF686.4932453968173
aF0.0
aF0.0
aF467.02013680942855
aF0.0
aF0.0
aF276.40167541938627
aF0.0
aF0.0
aF278.70680044593087
aF0.0
aF0.0
aF1689.1131030133822
aF0.0
aF1126.465914348358
aF0.0
aF0.0
aF0.0
aF0.0
asS'Firmicutes__Clostridia__Lachnospirales__Lachnospiraceae__NA__NA__ASV668'
p557
(lp558
F1788.6421225219851
aF1147.2902097902095
aF0.0
aF0.0
aF0.0
aF0.0
aF2108.910145364168
aF576.9072278234116
aF0.0
aF533.8898730798164
aF935.5133629579224
aF1558.3030899509993
aF503.524672708963
aF0.0
aF451.2755169759227
aF255.71880230611887
aF270.2580964821405
aF413.96775921687066
aF523.002031661739
aF0.0
aF489.4962267999191
aF939.4215440674109
aF377.58112094395307
asS'Firmicutes__Clostridia__Peptostreptococcales_Tissierellales__Anaerovoracaceae__Eubacterium_nodatum_group__uncultured_organism__ASV358'
p559
(lp560
F968.847816366076
aF1311.1888111888093
aF1101.2161256343925
aF1012.1063490209807
aF784.5637090249343
aF386.15460226075936
aF376.59109738645753
aF1730.7216834702328
aF750.6098705197971
aF1917.1499987866114
aF1126.8683690175008
aF225.5438682823809
aF818.2275931520645
aF380.0547278808141
aF185.81933051949724
aF1301.841175376606
aF1981.8927075356944
aF535.72298251595
aF885.0803612737117
aF581.720550397137
aF2141.54599224964
aF683.2156684126626
aF353.98230088495563
asS'Firmicutes__Clostridia__Lachnospirales__Lachnospiraceae__Acetatifactor__NA__ASV6'
p561
(lp562
F0.0
aF1201.9230769230794
aF383.03169587283367
aF428.19883997041535
aF0.0
aF315.9446745769854
aF0.0
aF247.24595478146242
aF337.77444173390916
aF364.01582255442
aF425.2333467990558
aF307.5598203850649
aF283.23262839879175
aF354.7177460220933
aF0.0
aF0.0
aF382.86563668303233
aF0.0
aF0.0
aF0.0
aF163.1654089333064
aF0.0
aF0.0
asS'Firmicutes__Clostridia__Lachnospirales__Lachnospiraceae__Roseburia__NA__ASV866'
p563
(lp564
F397.4760272271087
aF273.1643356643359
aF0.0
aF0.0
aF0.0
aF0.0
aF0.0
aF0.0
aF0.0
aF266.94493653990776
aF170.09333871962252
aF0.0
aF0.0
aF0.0
aF0.0
aF302.21312999814063
aF247.73658844196257
aF121.7552232990793
aF422.42471788063483
aF0.0
aF101.97838058331625
aF0.0
aF94.39528023598817
asS'Bacteroidota__Bacteroidia__Bacteroidales__Marinifilaceae__Odoribacter__uncultured_bacterium__ASV1016'
p565
(lp566
F0.0
aF11773.382867132896
aF17116.728909317204
aF233.5630036202272
aF0.0
aF7723.092045215198
aF0.0
aF0.0
aF13323.325201726415
aF145.6063290217684
aF9610.27363765866
aF16259.662504357091
aF629.405840886203
aF0.0
aF6609.859042764991
aF9949.786126092611
aF9323.904328633847
aF5186.772512540786
aF10460.04063323474
aF5638.214565387632
aF0.0
aF0.0
aF4176.991150442477
asS'Bacteroidota__Bacteroidia__Bacteroidales__Rikenellaceae__Alistipes__uncultured_bacterium__ASV249'
p567
(lp568
F178690.31649028655
aF327.79720279720283
aF91640.33323757532
aF66954.72770446505
aF1471.0569544217535
aF41845.11689952963
aF652.7579021365268
aF88431.63649350291
aF94539.31319196844
aF52078.53034678573
aF16966.810537282316
aF164.0319042053679
aF1101.4602215508562
aF177.35887301104665
aF30580.55267978016
aF66579.87725497493
aF0.0
aF2240.2961087030612
aF90660.39064228679
aF6376.552187045536
aF40118.29492147665
aF26019.130038715586
aF19705.014749262566
asS'Firmicutes__Clostridia__Lachnospirales__Lachnospiraceae__Blautia__Lachnospiraceae_bacterium__ASV1210'
p569
(lp570
F1416.0083469965784
aF2540.4283216783188
aF0.0
aF583.9075090505664
aF465.83470223355533
aF1158.463806782284
aF502.1214631819434
aF0.0
aF262.7134546819295
aF679.4962021015849
aF1615.8867178364137
aF1127.7193414118994
aF723.8167170191342
aF684.0985101854667
aF318.5474237477099
aF720.6620792263348
aF472.9516688437462
aF365.26566989723796
aF1347.7360046667845
aF335.60800984450236
aF611.8702834998985
aF313.14051468913726
aF448.3775811209434
asS'Firmicutes__Clostridia__Lachnospirales__Lachnospiraceae__Lachnospiraceae_NK4A136_group__NA__ASV610'
p571
(lp572
F0.0
aF983.3916083916076
aF311.21325289667664
aF3892.7167270037835
aF0.0
aF0.0
aF0.0
aF0.0
aF0.0
aF97.07088601451208
aF0.0
aF0.0
aF0.0
aF0.0
aF0.0
aF0.0
aF0.0
aF0.0
aF80.46185102488286
aF0.0
aF0.0
aF0.0
aF0.0
asS'Firmicutes__Clostridia__Lachnospirales__Lachnospiraceae__Roseburia__uncultured_bacterium__ASV300'
p573
(lp574
F0.0
aF0.0
aF0.0
aF1323.523687181281
aF0.0
aF596.7843853120833
aF0.0
aF0.0
aF337.77444173390916
aF1795.811391268471
aF0.0
aF0.0
aF0.0
aF734.7724739029084
aF0.0
aF0.0
aF0.0
aF0.0
aF261.5010158308695
aF0.0
aF856.618396899858
aF0.0
aF70.79646017699113
asS'Firmicutes__Clostridia__Oscillospirales__Ruminococcaceae__uncultured__NA__ASV1391'
p575
(lp576
F521.6872857355797
aF928.7587412587407
aF0.0
aF2724.9017089026424
aF1225.8807953514613
aF947.8340237309562
aF0.0
aF439.54836405593227
aF0.0
aF2014.2208848011276
aF892.9900282780166
aF246.0478563080519
aF0.0
aF836.1204013377925
aF0.0
aF162.73014692207528
aF157.65055628124873
aF511.3719378561341
aF1609.237020497653
aF0.0
aF1896.7978788496816
aF0.0
aF802.3598820058991
asS'Firmicutes__Clostridia__Lachnospirales__Lachnospiraceae__Roseburia__Clostridium_sp___ASV673'
p577
(lp578
F645.8985442440506
aF0.0
aF0.0
aF389.2716727003783
aF171.62331134920458
aF0.0
aF276.1668047500693
aF0.0
aF112.59148057797006
aF339.74810105079194
aF637.8500201985833
aF328.0638084107358
aF0.0
aF0.0
aF0.0
aF185.97731076808617
aF0.0
aF0.0
aF80.46185102488286
aF0.0
aF0.0
aF0.0
aF0.0
asS'Firmicutes__Bacilli__Lactobacillales__Lactobacillaceae__Lactobacillus__Lactobacillus_johnsonii__ASV525'
p579
(lp580
F0.0
aF191.2150349650349
aF215.455328928469
aF0.0
aF0.0
aF596.7843853120833
aF7607.140167206448
aF0.0
aF3190.09194970914
aF97.07088601451208
aF3657.0067824718762
aF246.0478563080519
aF0.0
aF0.0
aF132.7280932282127
aF929.8865538404319
aF1238.6829422098128
aF8108.89787171869
aF60.34638826866211
aF2684.864078756011
aF101.97838058331625
aF6433.614210885903
aF21356.932153392285
asS'Firmicutes__Bacilli__RF39__RF39__RF39__uncultured_bacterium__ASV134'
p581
(lp582
F0.0
aF0.0
aF0.0
aF0.0
aF73.55284772108757
aF0.0
aF0.0
aF0.0
aF0.0
aF0.0
aF0.0
aF0.0
aF0.0
aF0.0
aF0.0
aF0.0
aF0.0
aF0.0
aF0.0
aF0.0
aF0.0
aF0.0
aF0.0
asS'Firmicutes__Clostridia__Oscillospirales__Ruminococcaceae__uncultured__uncultured_bacterium__ASV904'
p583
(lp584
F0.0
aF546.3286713286708
aF0.0
aF467.12600724045336
aF294.2113908843507
aF666.9943129958583
aF150.6364389545834
aF521.9636823164201
aF562.9574028898484
aF339.74810105079194
aF255.1400080794333
aF164.0319042053679
aF0.0
aF0.0
aF0.0
aF162.73014692207528
aF247.73658844196257
aF0.0
aF683.9257337115042
aF0.0
aF244.74811339995955
aF398.54247324071974
aF47.197640117994084
asS'Firmicutes__Clostridia__Oscillospirales__Ruminococcaceae__uncultured__NA__ASV218'
p585
(lp586
F1440.8505986982682
aF573.6451048951047
aF383.03169587283367
aF895.3248472108688
aF269.6937749773215
aF140.41985536754896
aF301.27287790916586
aF82.41531826048731
aF600.4878964158377
aF121.33860751814034
aF467.75668147896073
aF0.0
aF314.7029204431015
aF278.70680044593087
aF159.2737118738555
aF92.98865538404308
aF0.0
aF0.0
aF1327.6205419105684
aF178.9909385837344
aF203.9567611666325
aF0.0
aF0.0
asS'Bacteroidota__Bacteroidia__Bacteroidales__Muribaculaceae__Muribaculaceae__uncultured_bacterium__ASV563'
p587
(lp588
F0.0
aF0.0
aF0.0
aF0.0
aF0.0
aF2000.98293898757
aF577.439682659235
aF0.0
aF1088.3843122537023
aF2790.7879729172178
aF5570.55684306763
aF0.0
aF0.0
aF0.0
aF0.0
aF0.0
aF0.0
aF1996.7856621049025
aF0.0
aF2147.8912630048085
aF0.0
aF8767.93441129584
aF4483.775811209433
asS'Firmicutes__Clostridia__Lachnospirales__Lachnospiraceae__Tuzzerella__uncultured_bacterium__ASV830'
p589
(lp590
F2037.064639538933
aF928.7587412587407
aF2944.556162022408
aF1985.2855307719317
aF1029.7398680952256
aF1263.7786983079436
aF602.5457558183326
aF1950.495865498201
aF975.7928316757362
aF1140.5829106705212
aF1339.4850424170204
aF3116.6061799019885
aF2202.9204431017124
aF304.04378230465164
aF451.2755169759227
aF720.6620792263348
aF1351.2904824106977
aF998.3928310524512
aF1850.6225735723053
aF2461.1254055263466
aF632.2659596165614
aF825.552265998634
aF212.38938053097297
asS'Campilobacterota__Campylobacteria__Campylobacterales__Helicobacteraceae__Helicobacter__uncultured_Helicobacter__ASV741'
p591
(lp592
F248.42251701694295
aF245.8479020979019
aF143.636885952312
aF311.4173381603022
aF0.0
aF140.41985536754896
aF351.48502422736095
aF0.0
aF0.0
aF436.8189870653042
aF148.8316713796696
aF143.52791617969694
aF125.881168177241
aF202.69585486976743
aF424.7298983302799
aF162.73014692207528
aF0.0
aF243.5104465981586
aF120.69277653732422
aF268.48640787560106
aF183.56108504996945
aF227.73855613755387
aF259.58702064896784
asS'Bacteroidota__Bacteroidia__Bacteroidales__Muribaculaceae__Muribaculaceae__uncultured_Bacteroidales__ASV539'
p593
(lp594
F0.0
aF0.0
aF0.0
aF0.0
aF0.0
aF12602.682019237529
aF728.0761216138186
aF0.0
aF2401.9515856633548
aF8906.253791831483
aF9036.208619479936
aF0.0
aF0.0
aF0.0
aF0.0
aF0.0
aF0.0
aF11566.746213412584
aF0.0
aF7674.236491777604
aF12033.448908831338
aF14148.257800045572
aF10548.672566371715
asS'Firmicutes__Clostridia__Lachnospirales__Lachnospiraceae__uncultured__uncultured_bacterium__ASV1'
p595
(lp596
F1291.7970884880995
aF1884.8339160839191
aF0.0
aF0.0
aF245.17615907029224
aF0.0
aF0.0
aF0.0
aF0.0
aF291.21265804353584
aF0.0
aF143.52791617969694
aF0.0
aF0.0
aF0.0
aF0.0
aF157.65055628124873
aF194.8083572785269
aF0.0
aF0.0
aF203.9567611666325
aF0.0
aF0.0
asS'Bacteroidota__Bacteroidia__Bacteroidales__Muribaculaceae__Muribaculaceae__NA__ASV1353'
p597
(lp598
F0.0
aF0.0
aF15369.146796897392
aF2608.120207092532
aF0.0
aF0.0
aF0.0
aF0.0
aF0.0
aF0.0
aF0.0
aF2665.5184433372287
aF944.1087613293055
aF0.0
aF0.0
aF0.0
aF585.559209044638
aF2313.349242682507
aF0.0
aF2192.6389976507453
aF1142.1578625331467
aF3188.339785925762
aF1297.9351032448392
asS'Firmicutes__Clostridia__Clostridia_vadinBB60_group__Clostridia_vadinBB60_group__Clostridia_vadinBB60_group__uncultured_bacterium__ASV458'
p599
(lp600
F0.0
aF0.0
aF1723.642631427752
aF0.0
aF3236.325299727856
aF0.0
aF0.0
aF384.6048185489407
aF1576.2807280915708
aF728.0316451088411
aF1849.765058575891
aF1517.2951138996493
aF0.0
aF886.7943650552343
aF159.2737118738555
aF162.73014692207528
aF2387.2798522589114
aF194.8083572785269
aF824.7339730050495
aF425.10347913636906
aF142.76973281664334
aF0.0
aF424.7787610619469
asS'Firmicutes__Clostridia__Oscillospirales__Oscillospiraceae__Colidextribacter__NA__ASV914'
p601
(lp602
F2782.3321905897574
aF1994.0996503496492
aF813.9423537297707
aF1790.6496944217415
aF980.7046362811681
aF561.6794214701958
aF627.6518289774292
aF1043.927364632836
aF975.7928316757362
aF1820.079112772105
aF2593.923415474239
aF1332.7592216686094
aF1007.049345417924
aF0.0
aF0.0
aF418.4489492281941
aF630.602225124994
aF0.0
aF422.42471788063483
aF805.4592236268043
aF775.0356924332049
aF1024.8235026189914
aF0.0
asS'Firmicutes__Clostridia__Lachnospirales__Lachnospiraceae__GCA_900066575__uncultured_bacterium__ASV99'
p603
(lp604
F1440.8505986982682
aF1994.0996503496492
aF0.0
aF661.7618435906425
aF0.0
aF0.0
aF0.0
aF0.0
aF825.6708575717769
aF1358.9924042031678
aF0.0
aF0.0
aF0.0
aF0.0
aF0.0
aF0.0
aF0.0
aF0.0
aF864.9648985174906
aF0.0
aF509.8919029165822
aF0.0
aF0.0
asS'Firmicutes__Bacilli__Erysipelotrichales__Erysipelotrichaceae__Ileibacterium__Ileibacterium_valens__ASV1343'
p605
(lp606
F11899.438565111563
aF8686.625874125866
aF33491.333907880886
aF1362.4508544513212
aF16917.154975850175
aF48760.794776381415
aF17247.872260299726
aF2087.854729265682
aF40532.93300806903
aF31499.50251170918
aF22516.10571301
aF24748.31354698489
aF42296.07250755283
aF84549.50846255188
aF38809.69445992934
aF72833.36432955184
aF43241.29543714244
aF45585.15560317535
aF0.0
aF33717.41805571092
aF326.3308178666128
aF36808.244135732195
aF63622.41887905598
asS'Firmicutes__Clostridia__Lachnospirales__Lachnospiraceae__Lachnospiraceae_FCS020_group__NA__ASV268'
p607
(lp608
F0.0
aF109.26573426573394
aF0.0
aF0.0
aF245.17615907029224
aF0.0
aF0.0
aF219.77418202796613
aF0.0
aF0.0
aF0.0
aF205.03988025670992
aF314.7029204431015
aF152.02189115232582
aF0.0
aF395.20178538218323
aF360.34412864285434
aF121.7552232990793
aF0.0
aF223.73867322966822
aF0.0
aF170.80391710316587
aF0.0
assS'subclass_sl'
p609
(dp610
g10
(I0
I11
tp611
sg12
(I11
I23
tp612
ssS'norm'
p613
F1000000.0
sS'cls'
p614
(dp615
S'class'
p616
(g3
g3
g3
g3
g3
g3
g3
g3
g3
g3
g3
S'30'
p617
S'30'
p618
S'30'
p619
S'30'
p620
S'30'
p621
S'30'
p622
S'30'
p623
S'30'
p624
S'30'
p625
S'30'
p626
S'30'
p627
g5
tp628
sS'subclass'
p629
(lp630
S'0_subcl'
p631
aS'0_subcl'
p632
aS'0_subcl'
p633
aS'0_subcl'
p634
aS'0_subcl'
p635
aS'0_subcl'
p636
aS'0_subcl'
p637
aS'0_subcl'
p638
aS'0_subcl'
p639
aS'0_subcl'
p640
ag10
aS'30_subcl'
p641
aS'30_subcl'
p642
aS'30_subcl'
p643
aS'30_subcl'
p644
aS'30_subcl'
p645
aS'30_subcl'
p646
aS'30_subcl'
p647
aS'30_subcl'
p648
aS'30_subcl'
p649
aS'30_subcl'
p650
aS'30_subcl'
p651
ag12
asS'subject'
p652
(S'X17763'
p653
S'X17770'
p654
S'X17784'
p655
S'X17786'
p656
S'X17802'
p657
S'X17826'
p658
S'X17861'
p659
S'X17884'
p660
S'X17947'
p661
S'X17980'
p662
S'X17993'
p663
S'X17807'
p664
S'X17817'
p665
S'X17822'
p666
S'X17831'
p667
S'X17839'
p668
S'X17872'
p669
S'X17875'
p670
S'X17953'
p671
S'X17981'
p672
S'X17998'
p673
S'X18012'
p674
S'X18020'
p675
tp676
ss.