(dp0
S'class_sl'
p1
(dp2
S'60'
p3
(I11
I23
tp4
sS'30'
p5
(I0
I11
tp6
ssS'class_hierarchy'
p7
(dp8
g3
(lp9
S'60_subcl'
p10
asg5
(lp11
S'30_subcl'
p12
assS'feats'
p13
(dp14
S'Bacteroidota__Bacteroidia__Bacteroidales__Dysgonomonadaceae__Dysgonomonas__NA__ASV443'
p15
(lp16
F0.0
aF109.64431384588413
aF0.0
aF68.7112067978287
aF0.0
aF261.5176742361504
aF136.24596939007262
aF0.0
aF42.6284715561524
aF0.0
aF0.0
aF0.0
aF0.0
aF501.7281748243955
aF492.351572978387
aF0.0
aF0.0
aF0.0
aF72.04091924212949
aF60.240963855421676
aF0.0
aF0.0
aF0.0
asS'Firmicutes__Clostridia__Lachnospirales__Lachnospiraceae__Lachnospiraceae_NK4A136_group__uncultured_bacterium__ASV496'
p17
(lp18
F0.0
aF0.0
aF510.2908657935026
aF0.0
aF0.0
aF0.0
aF0.0
aF0.0
aF0.0
aF0.0
aF0.0
aF0.0
aF0.0
aF0.0
aF8352.999100185052
aF274.30790006752204
aF0.0
aF0.0
aF450.2557452633093
aF0.0
aF0.0
aF0.0
aF0.0
asS'Firmicutes__Clostridia__Lachnospirales__Lachnospiraceae__Lachnoclostridium__NA__ASV723'
p19
(lp20
F0.0
aF0.0
aF0.0
aF0.0
aF0.0
aF0.0
aF0.0
aF158.1736219123192
aF0.0
aF0.0
aF0.0
aF0.0
aF447.6142162275072
aF0.0
aF950.7478650617138
aF1477.0425388251203
aF0.0
aF1461.5304311514742
aF360.204596210648
aF180.72289156626474
aF361.0794374762452
aF0.0
aF0.0
asS'Firmicutes__Clostridia__Lachnospirales__Lachnospiraceae__NA__NA__ASV1421'
p21
(lp22
F0.0
aF0.0
aF0.0
aF0.0
aF0.0
aF65.3794185590376
aF68.1229846950361
aF0.0
aF0.0
aF0.0
aF0.0
aF0.0
aF119.36379099400204
aF0.0
aF84.88820223765299
aF0.0
aF0.0
aF83.51602463722719
aF0.0
aF0.0
aF95.02090459901181
aF0.0
aF0.0
asS'Firmicutes__Clostridia__Lachnospirales__Lachnospiraceae__Lachnospiraceae_UCG_001__uncultured_bacterium__ASV28'
p23
(lp24
F0.0
aF0.0
aF0.0
aF0.0
aF0.0
aF0.0
aF0.0
aF0.0
aF596.7986017861331
aF0.0
aF0.0
aF0.0
aF1790.4568649100306
aF501.7281748243955
aF0.0
aF928.4267386900742
aF0.0
aF0.0
aF0.0
aF0.0
aF760.1672367920945
aF0.0
aF0.0
asS'Firmicutes__Clostridia__Lachnospirales__Lachnospiraceae__Lachnospiraceae_UCG_001__uncultured_bacterium__ASV1244'
p25
(lp26
F0.0
aF899.0833735362484
aF3345.2401202018445
aF0.0
aF453.4586528155653
aF697.3804646297344
aF0.0
aF0.0
aF1406.73956135303
aF1474.2819700775317
aF2690.0837945641706
aF862.0210221900902
aF1909.8206559040307
aF362.35923737317455
aF0.0
aF2004.5577312626604
aF2550.0241218498045
aF3820.8581271531407
aF1422.808155032059
aF240.96385542168633
aF2527.5560623337155
aF120.36591237361597
aF332.1155762205252
asS'Firmicutes__Clostridia__Lachnospirales__Lachnospiraceae__Roseburia__uncultured_bacterium__ASV467'
p27
(lp28
F273.5666248717655
aF2675.321257839566
aF680.3878210580028
aF435.17097638624875
aF865.693791738807
aF1024.277557424919
aF840.1834779054454
aF790.8681095615959
aF0.0
aF1774.5986676859222
aF927.6151015738533
aF1195.7065791669002
aF537.1370594730092
aF418.10681235366275
aF679.1056179012244
aF1012.8291694800802
aF2320.292218980447
aF939.5552771688058
aF360.204596210648
aF281.12449799196804
aF0.0
aF361.0977371208479
aF974.2056902468727
asS'Firmicutes__Bacilli__Lactobacillales__Lactobacillaceae__Lactobacillus__Lactobacillus_reuteri__ASV782'
p29
(lp30
F0.0
aF2017.455374764263
aF85.04847763225031
aF549.6896543826296
aF0.0
aF2179.3139519679203
aF0.0
aF3374.3706007961455
aF2515.07982181299
aF518.7288413235772
aF432.8870474011313
aF0.0
aF0.0
aF0.0
aF203.73168537036688
aF0.0
aF4318.959773943814
aF62.63701847792032
aF0.0
aF0.0
aF57.01254275940709
aF312.9513721714013
aF0.0
asS'Firmicutes__Clostridia__Oscillospirales__Ruminococcaceae__Anaerotruncus__uncultured_bacterium__ASV1364'
p31
(lp32
F205.17496865382464
aF0.0
aF0.0
aF0.0
aF0.0
aF152.5519766377539
aF0.0
aF1028.1285424300752
aF873.883666901123
aF0.0
aF0.0
aF1251.3208386630304
aF895.2284324550153
aF390.23302486341817
aF1477.0547189351673
aF1455.9419311276204
aF0.0
aF1795.5945297003846
aF378.21482602118
aF240.96385542168633
aF874.1923223109089
aF0.0
aF0.0
asS'Bacteroidota__Bacteroidia__Bacteroidales__Muribaculaceae__Muribaculaceae__NA__ASV106'
p33
(lp34
F136.78331243588275
aF0.0
aF0.0
aF114.51867799638083
aF164.89405556929628
aF1830.6237196530508
aF953.7217857305052
aF3242.559249202542
aF1214.9114393503398
aF4450.147428197007
aF0.0
aF0.0
aF208.88663423950305
aF0.0
aF288.6198876080202
aF0.0
aF0.0
aF501.09614782336257
aF1566.8899935163195
aF0.0
aF570.125427594071
aF16682.71545498319
aF3431.8609542787567
asS'Firmicutes__Clostridia__Oscillospirales__Ruminococcaceae__uncultured__uncultured_bacterium__ASV735'
p35
(lp36
F0.0
aF0.0
aF708.7373136020867
aF1007.7643663681529
aF0.0
aF261.5176742361504
aF1067.260093555562
aF790.8681095615959
aF554.1701302299809
aF600.633395216774
aF556.5690609443116
aF472.7212057171461
aF1074.2741189460203
aF0.0
aF0.0
aF211.00607697501707
aF918.9276114774066
aF1169.2243449211812
aF522.2966645054395
aF120.48192771084317
aF665.1463321930822
aF0.0
aF0.0
asS'Bacteroidota__Bacteroidia__Bacteroidales__Muribaculaceae__Muribaculaceae__uncultured_bacterium__ASV1023'
p37
(lp38
F70716.97252935145
aF21446.427788254943
aF1871.0665079095113
aF4168.479879068277
aF2494.0225904856084
aF35566.40369611646
aF6448.97588446342
aF26546.80621095089
aF38472.1955794275
aF4395.544392268204
aF50864.228069633
aF58283.74395194932
aF6773.895138909612
aF33866.65180064667
aF1782.652246990709
aF5401.755570560431
aF3308.1394013186627
aF0.0
aF0.0
aF0.0
aF0.0
aF0.0
aF0.0
asS'Firmicutes__Clostridia__Lachnospirales__Lachnospiraceae__Lachnoclostridium__NA__ASV224'
p39
(lp40
F547.133249743531
aF745.5813341520104
aF141.74746272041733
aF0.0
aF432.8468958694035
aF261.5176742361504
aF0.0
aF1080.8530830675109
aF1833.02427691455
aF791.7440209675657
aF0.0
aF1890.8848228685804
aF1581.5702306705305
aF919.8349871780582
aF831.9043819289992
aF1793.5516542876403
aF0.0
aF605.4911786198963
aF504.28643469490635
aF321.2851405622488
aF1786.393006461422
aF0.0
aF0.0
asS'Firmicutes__Clostridia__Clostridia_vadinBB60_group__Clostridia_vadinBB60_group__Clostridia_vadinBB60_group__unidentified__ASV371'
p41
(lp42
F0.0
aF0.0
aF0.0
aF0.0
aF0.0
aF0.0
aF0.0
aF0.0
aF447.5989513396
aF0.0
aF0.0
aF0.0
aF1551.7292829220305
aF1282.1942245512328
aF679.1056179012244
aF0.0
aF0.0
aF0.0
aF468.2659750738423
aF0.0
aF798.1755986316987
aF0.0
aF0.0
asS'Firmicutes__Clostridia__Oscillospirales__Oscillospiraceae__Oscillibacter__uncultured_bacterium__ASV1155'
p43
(lp44
F0.0
aF0.0
aF1048.9312241310852
aF984.8606307688783
aF0.0
aF0.0
aF0.0
aF0.0
aF0.0
aF1719.9956317571205
aF0.0
aF1362.5493576553001
aF0.0
aF0.0
aF0.0
aF1012.8291694800802
aF918.9276114774066
aF2108.7796220899813
aF810.4603414739572
aF441.7670682730919
aF0.0
aF0.0
aF0.0
asS'Firmicutes__Clostridia__Oscillospirales__Oscillospiraceae__Colidextribacter__NA__ASV1057'
p45
(lp46
F957.4831870511803
aF0.0
aF368.5434030730853
aF847.4382171732209
aF0.0
aF719.1736041494131
aF0.0
aF0.0
aF0.0
aF1583.4880419351357
aF1082.2176185028309
aF4365.719370446581
aF0.0
aF1142.825287100015
aF1477.0547189351673
aF0.0
aF0.0
aF0.0
aF594.3375837475686
aF582.329317269076
aF1748.3846446218138
aF409.2441020702935
aF0.0
asS'Bacteroidota__Bacteroidia__Bacteroidales__Muribaculaceae__Muribaculaceae__NA__ASV245'
p47
(lp48
F0.0
aF0.0
aF0.0
aF0.0
aF103.05878473080993
aF0.0
aF0.0
aF131.81135159359948
aF0.0
aF0.0
aF0.0
aF0.0
aF0.0
aF0.0
aF118.84348313271461
aF0.0
aF0.0
aF0.0
aF0.0
aF100.4016064257033
aF152.0334473584185
aF288.87818969667853
aF0.0
asS'Firmicutes__Clostridia__Lachnospirales__Lachnospiraceae__Lachnospiraceae_NK4A136_group__NA__ASV610'
p49
(lp50
F0.0
aF0.0
aF0.0
aF0.0
aF0.0
aF0.0
aF0.0
aF52.7245406374397
aF63.942707334228494
aF0.0
aF0.0
aF2780.7129748067405
aF3939.0051028020707
aF3902.3302486341813
aF0.0
aF1329.3382849426105
aF0.0
aF814.2812402129651
aF0.0
aF0.0
aF38.008361839604724
aF0.0
aF0.0
asS'Bacteroidota__Bacteroidia__Bacteroidales__Muribaculaceae__Muribaculaceae__uncultured_bacterium__ASV1200'
p51
(lp52
F4969.793685170407
aF1600.806982149902
aF6747.179225491858
aF1855.2025835413779
aF16262.676230521878
aF2135.7276729285627
aF840.1834779054454
aF4165.238710357737
aF895.197902679199
aF7398.71136835208
aF0.0
aF0.0
aF4953.5973262510815
aF2174.1554242390434
aF0.0
aF0.0
aF14679.86859335152
aF0.0
aF1819.03321086377
aF0.0
aF0.0
aF4646.12421762157
aF4937.451566478465
asS'Firmicutes__Clostridia__Lachnospirales__Lachnospiraceae__Lachnospiraceae_NK4A136_group__NA__ASV1247'
p53
(lp54
F3510.7716858543267
aF7346.169027674227
aF18682.315586551023
aF18322.988479420954
aF247.34108335394544
aF3443.3160441093146
aF15940.778418638434
aF4534.310494819814
aF6095.87143252979
aF8627.279676750024
aF9585.356049596485
aF6145.375674322901
aF1253.3198054370205
aF836.2136247073255
aF9167.925841666525
aF2257.765023632681
aF13646.075030439513
aF7704.353272784202
aF1458.828614653119
aF803.2128514056225
aF5910.300266058538
aF0.0
aF2878.3349939112127
asS'Bacteroidota__Bacteroidia__Bacteroidales__Bacteroidaceae__Bacteroides__Bacteroides_acidifaciens__ASV711'
p55
(lp56
F68.39165621794137
aF285.0752159992985
aF368.5434030730853
aF137.4224135956574
aF226.72932640778265
aF196.1382556771123
aF249.78427721513248
aF210.8981625497586
aF362.342008227295
aF163.80910778639276
aF216.44352370056615
aF333.68555697680904
aF119.36379099400204
aF167.2427249414655
aF492.351572978387
aF147.70425388251203
aF91.89276114774066
aF271.42708007098804
aF126.07160867372635
aF261.0441767068272
aF380.08361839604726
aF216.65864227250813
aF0.0
asS'Firmicutes__Clostridia__Clostridia_vadinBB60_group__Clostridia_vadinBB60_group__Clostridia_vadinBB60_group__uncultured_bacterium__ASV1240'
p57
(lp58
F0.0
aF0.0
aF9071.837614106707
aF0.0
aF0.0
aF0.0
aF0.0
aF0.0
aF7161.5832214336
aF0.0
aF0.0
aF0.0
aF0.0
aF0.0
aF0.0
aF4431.127616475351
aF0.0
aF5720.847687650064
aF144.0818384842594
aF0.0
aF7601.672367920945
aF0.0
aF0.0
asS'Bacteroidota__Bacteroidia__Bacteroidales__Muribaculaceae__Muribaculaceae__uncultured_Bacteroidales__ASV113'
p59
(lp60
F3054.827311068051
aF4605.0611815271295
aF11283.098032545167
aF2702.640800714593
aF3277.269354439772
aF2484.417905243432
aF0.0
aF5799.699470118374
aF0.0
aF14797.422736704179
aF0.0
aF0.0
aF0.0
aF0.0
aF0.0
aF0.0
aF0.0
aF0.0
aF0.0
aF0.0
aF0.0
aF16995.666827154517
aF0.0
asS'Firmicutes__Clostridia__Peptococcales__Peptococcaceae__uncultured__unidentified__ASV441'
p61
(lp62
F410.34993730764825
aF0.0
aF0.0
aF229.03735599276266
aF0.0
aF370.4833718345459
aF0.0
aF711.781298605437
aF0.0
aF518.7288413235772
aF0.0
aF1473.7778766475703
aF626.6599027185102
aF529.6019623146391
aF0.0
aF0.0
aF712.1688988949902
aF563.7331663012828
aF324.1841365895829
aF240.96385542168633
aF0.0
aF0.0
aF0.0
asS'Firmicutes__Clostridia__Lachnospirales__Lachnospiraceae__NA__NA__ASV68'
p63
(lp64
F136.78331243588275
aF0.0
aF368.5434030730853
aF0.0
aF288.56459724626905
aF0.0
aF0.0
aF0.0
aF0.0
aF0.0
aF0.0
aF0.0
aF537.1370594730092
aF0.0
aF0.0
aF0.0
aF0.0
aF0.0
aF432.24551545277717
aF0.0
aF0.0
aF0.0
aF0.0
asS'Firmicutes__Clostridia__Oscillospirales__Oscillospiraceae__NA__NA__ASV773'
p65
(lp66
F0.0
aF307.004078768475
aF0.0
aF0.0
aF0.0
aF108.9656975983955
aF0.0
aF237.26043286847928
aF127.88541466845699
aF218.41214371519067
aF0.0
aF0.0
aF626.6599027185102
aF250.86408741219722
aF288.6198876080202
aF126.60364618501002
aF0.0
aF856.0392525315787
aF0.0
aF0.0
aF0.0
aF0.0
aF0.0
asS'Proteobacteria__Gammaproteobacteria__Burkholderiales__Sutterellaceae__Parasutterella__uncultured_bacterium__ASV1079'
p67
(lp68
F0.0
aF131.57317661506053
aF0.0
aF0.0
aF0.0
aF0.0
aF0.0
aF0.0
aF0.0
aF81.90455389319648
aF0.0
aF0.0
aF0.0
aF0.0
aF458.3962920833267
aF63.30182309250512
aF0.0
aF0.0
aF0.0
aF40.16064257028112
aF0.0
aF0.0
aF0.0
asS'Firmicutes__Bacilli__Lactobacillales__Enterococcaceae__Enterococcus__NA__ASV748'
p69
(lp70
F0.0
aF0.0
aF0.0
aF91.61494239710495
aF0.0
aF283.3108137558291
aF249.78427721513248
aF210.8981625497586
aF3090.56418782105
aF218.41214371519067
aF0.0
aF1362.5493576553001
aF0.0
aF0.0
aF152.79876402777592
aF0.0
aF0.0
aF0.0
aF396.2250558317121
aF12831.325301204832
aF95.02090459901181
aF337.0245546461241
aF199.2693457323145
asS'Bacteroidota__Bacteroidia__Bacteroidales__Muribaculaceae__Muribaculaceae__uncultured_Bacteroidales__ASV1103'
p71
(lp72
F0.0
aF0.0
aF0.0
aF0.0
aF0.0
aF1176.8295340626798
aF408.7379081702168
aF2003.5325442227052
aF703.369780676514
aF7071.093152779288
aF0.0
aF0.0
aF0.0
aF0.0
aF0.0
aF0.0
aF0.0
aF0.0
aF1819.03321086377
aF0.0
aF0.0
aF11458.834857968262
aF4538.912875013844
asS'Firmicutes__Clostridia__Oscillospirales__Oscillospiraceae__uncultured__NA__ASV606'
p73
(lp74
F296.3638436110798
aF0.0
aF2296.308896070759
aF0.0
aF0.0
aF457.6559299132627
aF1566.828647985835
aF395.43405478079853
aF362.342008227295
aF0.0
aF649.3305711016975
aF305.87842722874103
aF2387.2758198800407
aF864.0874121975701
aF0.0
aF886.2255232950713
aF574.3297571733788
aF125.27403695584064
aF0.0
aF0.0
aF931.204865070316
aF0.0
aF0.0
asS'Firmicutes__Bacilli__RF39__RF39__RF39__NA__ASV769'
p75
(lp76
F2576.0857175424617
aF0.0
aF0.0
aF3733.3089026820285
aF968.752576469618
aF87.1725580787168
aF0.0
aF1502.649408167034
aF1385.42532557495
aF0.0
aF0.0
aF2530.4488070741304
aF7251.350302885623
aF8390.010034563496
aF3786.013819799327
aF0.0
aF620.2761377472492
aF1064.8293141246425
aF0.0
aF0.0
aF2451.5393386545093
aF553.6831969186333
aF0.0
asS'Firmicutes__Clostridia__Lachnospirales__Lachnospiraceae__NA__NA__ASV33'
p77
(lp78
F250.7694061324522
aF0.0
aF0.0
aF206.1336203934861
aF0.0
aF0.0
aF158.95363095508435
aF316.3472438246384
aF298.399300893066
aF191.1106257507917
aF0.0
aF583.9497247094151
aF775.8646414610133
aF250.86408741219722
aF424.4410111882654
aF379.8109385550301
aF0.0
aF292.30608623029485
aF288.1636769685178
aF0.0
aF285.062713797035
aF0.0
aF0.0
asS'Bacteroidota__Bacteroidia__Bacteroidales__Muribaculaceae__Muribaculaceae__uncultured_Bacteroidales__ASV1347'
p79
(lp80
F0.0
aF0.0
aF0.0
aF0.0
aF0.0
aF0.0
aF0.0
aF1028.1285424300752
aF0.0
aF3713.00644315824
aF0.0
aF0.0
aF0.0
aF0.0
aF0.0
aF0.0
aF0.0
aF0.0
aF936.5319501476836
aF0.0
aF0.0
aF5873.85652383245
aF2590.501494520097
asS'Firmicutes__Clostridia__Oscillospirales__Oscillospiraceae__Colidextribacter__NA__ASV415'
p81
(lp82
F1367.8331243588275
aF1206.0874523047285
aF4025.6279412598515
aF1717.7801699457225
aF1051.199604254263
aF806.34616222813
aF4586.947636132431
aF2029.894814541428
aF2067.48087047339
aF1692.6941137927295
aF2937.447821650539
aF3670.541126744901
aF1700.9340216645307
aF1226.4466495707395
aF3616.23741532402
aF1139.4328156650904
aF2595.970502423676
aF1837.3525420190022
aF1656.9411425689746
aF1064.2570281124495
aF1957.4306347396434
aF553.6831969186333
aF1483.4495737850093
asS'Firmicutes__Clostridia__Clostridia_vadinBB60_group__Clostridia_vadinBB60_group__Clostridia_vadinBB60_group__unidentified__ASV362'
p83
(lp84
F387.5527185683349
aF263.14635323012106
aF992.2322390429204
aF0.0
aF0.0
aF0.0
aF0.0
aF711.781298605437
aF0.0
aF0.0
aF0.0
aF1362.5493576553001
aF0.0
aF0.0
aF0.0
aF0.0
aF0.0
aF521.9751539826693
aF0.0
aF0.0
aF0.0
aF0.0
aF0.0
asS'Firmicutes__Clostridia__Oscillospirales__Oscillospiraceae__Colidextribacter__NA__ASV701'
p85
(lp86
F0.0
aF0.0
aF652.038328513919
aF0.0
aF0.0
aF0.0
aF0.0
aF711.781298605437
aF0.0
aF0.0
aF0.0
aF0.0
aF0.0
aF0.0
aF662.1279774536936
aF0.0
aF0.0
aF0.0
aF0.0
aF0.0
aF0.0
aF0.0
aF0.0
asS'Firmicutes__Clostridia__Lachnospirales__Lachnospiraceae__NA__NA__ASV274'
p87
(lp88
F0.0
aF679.7947458444802
aF2579.803821511598
aF183.22988479420954
aF329.7881111385936
aF0.0
aF817.4758163404337
aF0.0
aF255.77082933691398
aF273.0151796439886
aF834.8535914164684
aF0.0
aF298.4094774850051
aF278.73787490244183
aF475.3739325308574
aF400.91154625253205
aF1010.8203726251514
aF208.79006159306772
aF108.06137886319429
aF180.72289156626474
aF190.04180919802363
aF0.0
aF0.0
asS'Firmicutes__Clostridia__Lachnospirales__Lachnospiraceae__NA__NA__ASV806'
p89
(lp90
F729.5109996580424
aF0.0
aF793.7857912343363
aF870.3419527724965
aF0.0
aF893.5187203068467
aF13919.796539352395
aF0.0
aF4348.10409872754
aF1392.3774161843387
aF2906.527318264737
aF20048.940548356604
aF6565.008504670112
aF6940.573085070803
aF12308.789324459676
aF3587.1033085752906
aF1125.68632405982
aF3048.3348992587908
aF1674.9513723795096
aF481.92771084337363
aF6404.408969973394
aF0.0
aF0.0
asS'Bacteroidota__Bacteroidia__Bacteroidales__Muribaculaceae__Muribaculaceae__uncultured_bacterium__ASV1262'
p91
(lp92
F6884.760059272774
aF1951.6687864567307
aF8476.498270680951
aF2198.7586175305164
aF20240.745321131137
aF3770.2131369045055
aF817.4758163404337
aF4455.223683863656
aF1193.59720357227
aF10401.878344435945
aF0.0
aF556.1425949613481
aF6744.054191161112
aF2703.7573865536833
aF288.6198876080202
aF126.60364618501002
aF18470.444990695916
aF0.0
aF2323.3196455586817
aF0.0
aF323.07107563664005
aF6788.6374578719315
aF6996.568139045727
asS'Firmicutes__Clostridia__Lachnospirales__Lachnospiraceae__uncultured__uncultured_bacterium__ASV436'
p93
(lp94
F0.0
aF43.85772553835355
aF368.5434030730853
aF503.8821831840774
aF0.0
aF87.1725580787168
aF454.15323130024035
aF342.70951414335815
aF277.08506511499
aF0.0
aF0.0
aF0.0
aF0.0
aF0.0
aF0.0
aF0.0
aF275.6782834432216
aF417.58012318613544
aF144.0818384842594
aF261.0441767068272
aF456.1003420752565
aF96.29272989889267
aF287.8334993911213
asS'Firmicutes__Clostridia__Clostridia_vadinBB60_group__Clostridia_vadinBB60_group__Clostridia_vadinBB60_group__unidentified__ASV1077'
p95
(lp96
F0.0
aF942.9410990746022
aF1360.7756421160036
aF2450.6997091225544
aF0.0
aF3465.1091836289934
aF5540.669421862939
aF1265.3889752985494
aF0.0
aF5815.2233264169445
aF2473.6402708636047
aF0.0
aF10981.468771448204
aF7470.175047385444
aF7096.653707067795
aF1835.7528696826505
aF5582.485239725249
aF0.0
aF5295.007564296525
aF4116.465863453816
aF0.0
aF818.488204140588
aF0.0
asS'Firmicutes__Clostridia__Oscillospirales__Oscillospiraceae__UCG_005__NA__ASV938'
p97
(lp98
F0.0
aF0.0
aF0.0
aF664.2083323790104
aF144.28229862313452
aF0.0
aF0.0
aF0.0
aF0.0
aF764.4425030031668
aF2566.4017810209916
aF0.0
aF566.9780072215092
aF222.99029992195364
aF0.0
aF1899.0546927751504
aF735.1420891819248
aF0.0
aF0.0
aF0.0
aF0.0
aF72.21954742416949
aF0.0
asS'Firmicutes__Clostridia__Lachnospirales__Lachnospiraceae__Lachnospiraceae_UCG_006__uncultured_bacterium__ASV407'
p99
(lp100
F0.0
aF0.0
aF0.0
aF664.2083323790104
aF329.7881111385936
aF0.0
aF0.0
aF210.8981625497586
aF234.456593558838
aF0.0
aF0.0
aF0.0
aF0.0
aF0.0
aF0.0
aF0.0
aF298.6514737301573
aF0.0
aF0.0
aF0.0
aF0.0
aF168.51227732306256
aF0.0
asS'Bacteroidota__Bacteroidia__Bacteroidales__Rikenellaceae__Rikenellaceae_RC9_gut_group__uncultured_organism__ASV1029'
p101
(lp102
F0.0
aF0.0
aF0.0
aF68.7112067978287
aF61.83527083848626
aF0.0
aF136.24596939007262
aF52.7245406374397
aF0.0
aF0.0
aF0.0
aF0.0
aF0.0
aF111.49514996097632
aF0.0
aF189.90546927751504
aF0.0
aF0.0
aF0.0
aF0.0
aF0.0
aF0.0
aF0.0
asS'Proteobacteria__Gammaproteobacteria__Enterobacterales__Enterobacteriaceae__NA__NA__ASV1297'
p103
(lp104
F0.0
aF0.0
aF0.0
aF0.0
aF164.89405556929628
aF0.0
aF0.0
aF0.0
aF0.0
aF0.0
aF92.76151015738533
aF0.0
aF0.0
aF0.0
aF152.79876402777592
aF0.0
aF0.0
aF0.0
aF0.0
aF0.0
aF0.0
aF0.0
aF0.0
asS'Bacteroidota__Bacteroidia__Bacteroidales__Rikenellaceae__Alistipes__uncultured_bacterium__ASV945'
p105
(lp106
F10349.937307648474
aF438.5772553835355
aF0.0
aF1671.9726987471674
aF0.0
aF871.725580787168
aF0.0
aF7091.450715735647
aF7715.753351663579
aF3194.277601834662
aF0.0
aF16211.556643123304
aF626.6599027185102
aF2759.504961534177
aF0.0
aF0.0
aF10360.908819407807
aF14427.393256080968
aF9617.462718824296
aF9819.277108433733
aF13568.985176738872
aF1011.0736639383715
aF0.0
asS'Firmicutes__Clostridia__Clostridia_vadinBB60_group__Clostridia_vadinBB60_group__Clostridia_vadinBB60_group__uncultured_bacterium__ASV435'
p107
(lp108
F0.0
aF0.0
aF0.0
aF274.8448271913148
aF0.0
aF87.1725580787168
aF0.0
aF263.62270318719897
aF0.0
aF0.0
aF0.0
aF361.4926867248761
aF656.5008504670112
aF1282.1942245512328
aF441.4186516357961
aF0.0
aF252.70509315628684
aF0.0
aF414.2352856422452
aF220.88353413654647
aF0.0
aF0.0
aF0.0
asS'Firmicutes__Clostridia__Oscillospirales__Oscillospiraceae__uncultured__uncultured_bacterium__ASV725'
p109
(lp110
F2484.896842585209
aF1184.158589535551
aF2919.9977320405965
aF1694.87643434644
aF762.6350070079972
aF2549.797323802468
aF6971.2521004586915
aF12970.236996810148
aF12809.8557026238
aF1911.106257507917
aF1576.9456726755477
aF10455.480785273301
aF14890.632926501705
aF12710.447095551363
aF9931.919661805405
aF4705.435516542881
aF1493.2573686507815
aF10209.834011900984
aF4934.8029680858735
aF2710.843373493976
aF9198.023565184347
aF0.0
aF0.0
asS'Bacteroidota__Bacteroidia__Bacteroidales__Muribaculaceae__Muribaculaceae__uncultured_bacterium__ASV713'
p111
(lp112
F0.0
aF526.2927064602432
aF481.9413732494188
aF0.0
aF206.1175694616209
aF32384.60532624331
aF38444.07102956536
aF13892.916457965393
aF7204.21169298975
aF43491.318117287265
aF0.0
aF444.9140759690781
aF447.6142162275072
aF278.73787490244183
aF475.3739325308574
aF548.6158001350441
aF229.73190286935116
aF250.54807391168129
aF4772.710899791078
aF220.88353413654647
aF475.1045229950586
aF2936.928261916225
aF12996.789549429832
asS'Bacteroidota__Bacteroidia__Bacteroidales__Muribaculaceae__Muribaculaceae__NA__ASV1330'
p113
(lp114
F0.0
aF0.0
aF0.0
aF0.0
aF0.0
aF871.725580787168
aF0.0
aF0.0
aF596.7986017861331
aF1883.804739543516
aF0.0
aF222.45703798453906
aF0.0
aF0.0
aF0.0
aF0.0
aF0.0
aF0.0
aF0.0
aF0.0
aF0.0
aF5657.197881559941
aF1173.475035979184
asS'Firmicutes__Bacilli__Erysipelotrichales__Erysipelotrichaceae__Dubosiella__uncultured_bacterium__ASV3'
p115
(lp116
F7067.13780918728
aF9846.059383360373
aF3033.3957022169257
aF4420.420970660315
aF9048.561299365152
aF16192.302663121654
aF6108.360960988238
aF11230.32715577471
aF8376.49466078394
aF10784.099595937578
aF5318.326582356756
aF1140.0923196707604
aF5759.302915460602
aF8362.136247073255
aF5619.598988132628
aF3924.7130317353112
aF4755.450389395583
aF11838.39649232696
aF14029.969022404763
aF19718.87550200806
aF8076.776890916002
aF15190.178141550281
aF13638.87966345625
asS'Firmicutes__Clostridia__Lachnospirales__Lachnospiraceae__NA__NA__ASV193'
p117
(lp118
F0.0
aF0.0
aF510.2908657935026
aF526.785918783353
aF0.0
aF0.0
aF885.5988010354689
aF0.0
aF0.0
aF0.0
aF0.0
aF0.0
aF0.0
aF0.0
aF831.9043819289992
aF0.0
aF574.3297571733788
aF0.0
aF0.0
aF0.0
aF0.0
aF0.0
aF0.0
asS'Firmicutes__Clostridia__Lachnospirales__Lachnospiraceae__Acetatifactor__uncultured_bacterium__ASV1424'
p119
(lp120
F0.0
aF0.0
aF85.04847763225031
aF160.32614919493398
aF0.0
aF108.9656975983955
aF0.0
aF263.62270318719897
aF1598.5676833557102
aF354.91973353718447
aF2628.242787792586
aF1084.4780601746304
aF775.8646414610133
aF418.10681235366275
aF220.70932581789754
aF1371.5395003376104
aF689.1957086080554
aF835.1602463722719
aF648.3682731791658
aF341.3654618473896
aF380.08361839604726
aF0.0
aF110.70519207350873
asS'Firmicutes__Clostridia__Lachnospirales__Lachnospiraceae__Eubacterium_xylanophilum_group__uncultured_bacterium__ASV59'
p121
(lp122
F0.0
aF0.0
aF793.7857912343363
aF0.0
aF0.0
aF0.0
aF0.0
aF0.0
aF0.0
aF682.5379491099699
aF0.0
aF12429.786997386103
aF0.0
aF0.0
aF0.0
aF4304.523970290341
aF0.0
aF0.0
aF0.0
aF0.0
aF0.0
aF0.0
aF287.8334993911213
asS'Firmicutes__Clostridia__Lachnospirales__Lachnospiraceae__Lachnospiraceae_NK4A136_group__NA__ASV978'
p123
(lp124
F7089.935027926594
aF0.0
aF0.0
aF0.0
aF0.0
aF653.794185590376
aF0.0
aF210.8981625497586
aF234.456593558838
aF0.0
aF0.0
aF10538.902174517503
aF1939.6616036525306
aF1560.9320994536786
aF2954.1094378703247
aF1624.7467927076304
aF0.0
aF1649.4414865852382
aF234.13298753692064
aF160.64257028112488
aF1539.3386545039941
aF168.51227732306256
aF0.0
asS'Bacteroidota__Bacteroidia__Bacteroidales__Muribaculaceae__Muribaculaceae__uncultured_bacterium__ASV620'
p125
(lp126
F9734.412401686996
aF3486.6891802991104
aF11935.136361059134
aF3000.3893635051863
aF32278.01137768979
aF5600.836856557556
aF1430.5826785957622
aF8488.6510426278
aF2024.8523989172402
aF15015.834880419327
aF0.0
aF1751.8491741282503
aF10742.741189460203
aF4459.805998439073
aF0.0
aF0.0
aF31725.975786257422
aF0.0
aF3638.06642172754
aF120.48192771084317
aF0.0
aF8184.882041405881
aF10162.736632348067
asS'Firmicutes__Clostridia__Lachnospirales__Lachnospiraceae__uncultured__NA__ASV1407'
p127
(lp128
F0.0
aF0.0
aF311.8444179849175
aF0.0
aF0.0
aF0.0
aF476.8608928652531
aF237.26043286847928
aF0.0
aF0.0
aF0.0
aF0.0
aF0.0
aF0.0
aF118.84348313271461
aF0.0
aF0.0
aF83.51602463722719
aF126.07160867372635
aF120.48192771084317
aF0.0
aF0.0
aF0.0
asS'Firmicutes__Clostridia__Oscillospirales__Ruminococcaceae__uncultured__NA__ASV1406'
p129
(lp130
F68.39165621794137
aF65.78658830753037
aF566.9898508816693
aF389.36350518769564
aF0.0
aF152.5519766377539
aF499.56855443026495
aF474.5208657369576
aF0.0
aF54.60303592879762
aF401.966544015336
aF333.68555697680904
aF268.5685297365041
aF0.0
aF594.2174156635709
aF232.10668467251907
aF229.73190286935116
aF814.2812402129651
aF234.13298753692064
aF0.0
aF0.0
aF0.0
aF0.0
asS'Firmicutes__Clostridia__Oscillospirales__Butyricicoccaceae__UCG_009__uncultured_organism__ASV265'
p131
(lp132
F0.0
aF0.0
aF0.0
aF870.3419527724965
aF164.89405556929628
aF740.9667436690928
aF1317.0443707706984
aF0.0
aF1108.34026045996
aF382.2212515015834
aF2257.1967471630383
aF0.0
aF1074.2741189460203
aF1588.8058869439203
aF1188.4348313271462
aF0.0
aF1056.7667531990128
aF1106.5873264432598
aF630.3580433686337
aF0.0
aF1102.2424933485358
aF96.29272989889267
aF487.1028451234368
asS'Firmicutes__Clostridia__Clostridia_vadinBB60_group__Clostridia_vadinBB60_group__Clostridia_vadinBB60_group__uncultured_bacterium__ASV1385'
p133
(lp134
F296.3638436110798
aF0.0
aF850.4847763225041
aF435.17097638624875
aF0.0
aF0.0
aF340.6149234751805
aF0.0
aF319.713536671143
aF0.0
aF556.5690609443116
aF556.1425949613481
aF0.0
aF0.0
aF560.2621347685097
aF0.0
aF390.54423487789813
aF0.0
aF378.21482602118
aF0.0
aF266.0585328772329
aF0.0
aF199.2693457323145
asS'Firmicutes__Clostridia__Lachnospirales__Lachnospiraceae__uncultured__uncultured_bacterium__ASV900'
p135
(lp136
F478.74159352559013
aF0.0
aF141.74746272041733
aF0.0
aF0.0
aF479.4490694329424
aF0.0
aF342.70951414335815
aF1278.85414668457
aF273.0151796439886
aF216.44352370056615
aF361.4926867248761
aF179.04568649100307
aF0.0
aF730.0385392438162
aF358.71033085752913
aF0.0
aF876.9182586908855
aF270.15344715798574
aF381.5261044176703
aF304.066894716838
aF96.29272989889267
aF0.0
asS'Firmicutes__Clostridia__Oscillospirales__Ruminococcaceae__NA__NA__ASV1302'
p137
(lp138
F68.39165621794137
aF0.0
aF0.0
aF0.0
aF0.0
aF0.0
aF0.0
aF105.4490812748798
aF149.199650446533
aF0.0
aF0.0
aF111.22851899227003
aF0.0
aF83.62136247073254
aF0.0
aF0.0
aF0.0
aF0.0
aF0.0
aF0.0
aF114.02508551881438
aF0.0
aF0.0
asS'Firmicutes__Clostridia__Peptostreptococcales_Tissierellales__Anaerovoracaceae__Family_XIII_UCG_001__uncultured_bacterium__ASV928'
p139
(lp140
F0.0
aF0.0
aF0.0
aF0.0
aF0.0
aF0.0
aF0.0
aF0.0
aF0.0
aF0.0
aF0.0
aF83.42138924420222
aF0.0
aF0.0
aF0.0
aF105.50303848750802
aF0.0
aF0.0
aF0.0
aF0.0
aF0.0
aF0.0
aF0.0
asS'Firmicutes__Clostridia__Lachnospirales__Lachnospiraceae__NA__NA__ASV728'
p141
(lp142
F410.34993730764825
aF1469.2338055348473
aF1644.2705675568423
aF1076.4755731659807
aF309.1763541924308
aF588.4147670313379
aF295.19960034515594
aF659.0567579679965
aF1172.28296779419
aF1092.0607185759484
aF587.4895643301069
aF862.0210221900902
aF925.0693802035153
aF529.6019623146391
aF2241.048539074037
aF1434.8413234301104
aF1033.793562912087
aF730.7652155757381
aF576.3273539370366
aF803.2128514056225
aF1425.3135689851797
aF144.43909484833875
aF376.39765304992807
asS'Firmicutes__Clostridia__Clostridia_vadinBB60_group__Clostridia_vadinBB60_group__Clostridia_vadinBB60_group__uncultured_Clostridia__ASV318'
p143
(lp144
F683.9165621794148
aF0.0
aF708.7373136020867
aF0.0
aF0.0
aF0.0
aF976.429447295517
aF369.0717844620778
aF0.0
aF737.1409850387679
aF649.3305711016975
aF1779.6563038763104
aF656.5008504670112
aF724.7184747463491
aF390.48573029320414
aF569.7164078325461
aF0.0
aF730.7652155757381
aF810.4603414739572
aF261.0441767068272
aF399.08779931584934
aF0.0
aF0.0
asS'Firmicutes__Clostridia__Lachnospirales__Lachnospiraceae__NA__NA__ASV605'
p145
(lp146
F0.0
aF0.0
aF255.1454328967508
aF0.0
aF164.89405556929628
aF0.0
aF0.0
aF0.0
aF127.88541466845699
aF0.0
aF0.0
aF250.26416773260704
aF686.3417982155112
aF306.6116623926864
aF0.0
aF379.8109385550301
aF137.83914172161127
aF0.0
aF0.0
aF0.0
aF95.02090459901181
aF0.0
aF287.8334993911213
asS'Firmicutes__Clostridia__Lachnospirales__Lachnospiraceae__GCA_900066575__uncultured_bacterium__ASV658'
p147
(lp148
F182.37774991451033
aF0.0
aF0.0
aF480.9784475848009
aF0.0
aF0.0
aF840.1834779054454
aF210.8981625497586
aF0.0
aF354.91973353718447
aF0.0
aF361.4926867248761
aF298.4094774850051
aF0.0
aF509.3292134259177
aF168.80486158001403
aF298.6514737301573
aF0.0
aF0.0
aF0.0
aF0.0
aF0.0
aF0.0
asS'Bacteroidota__Bacteroidia__Bacteroidales__Muribaculaceae__Muribaculaceae__uncultured_bacterium__ASV1451'
p149
(lp150
F6930.354496751401
aF8815.402833209066
aF9525.429494812037
aF3802.020109479856
aF16654.29961249894
aF7213.529181013811
aF4223.625051092241
aF3901.61600717054
aF8866.72208367969
aF2648.247242546683
aF12893.849911876543
aF139.03564874033702
aF6982.781773149122
aF3679.3399487122288
aF8183.222695709757
aF15171.336934503704
aF9763.605871947448
aF0.0
aF1332.7570059793936
aF0.0
aF0.0
aF2912.855079441505
aF3188.309531717038
asS'Firmicutes__Clostridia__Oscillospirales__Oscillospiraceae__Colidextribacter__NA__ASV404'
p151
(lp152
F0.0
aF1535.0203938423797
aF0.0
aF0.0
aF700.7997361695108
aF0.0
aF3678.6411735319502
aF1581.7362191231919
aF1726.45309802417
aF0.0
aF0.0
aF0.0
aF2446.957715377041
aF0.0
aF0.0
aF1666.9480081026304
aF1401.3646075030485
aF626.3701847792041
aF0.0
aF0.0
aF0.0
aF0.0
aF420.679729879331
asS'Proteobacteria__Gammaproteobacteria__Enterobacterales__Morganellaceae__Proteus__NA__ASV22'
p153
(lp154
F410.34993730764825
aF0.0
aF0.0
aF0.0
aF535.9056806002145
aF0.0
aF0.0
aF158.1736219123192
aF0.0
aF0.0
aF0.0
aF0.0
aF0.0
aF0.0
aF0.0
aF0.0
aF0.0
aF41.75801231861355
aF0.0
aF1084.3373493975885
aF0.0
aF0.0
aF0.0
asS'Firmicutes__Clostridia__Lachnospirales__Lachnospiraceae__uncultured__uncultured_bacterium__ASV1001'
p155
(lp156
F0.0
aF0.0
aF907.1837614106709
aF0.0
aF0.0
aF261.5176742361504
aF90.83064626004817
aF0.0
aF809.940959566895
aF0.0
aF185.52302031477086
aF111.22851899227003
aF805.7055892095133
aF1003.456349648787
aF747.016179691347
aF379.8109385550301
aF183.78552229548168
aF0.0
aF90.05114905266194
aF160.64257028112488
aF627.1379703534782
aF0.0
aF0.0
asS'Bacteroidota__Bacteroidia__Bacteroidales__Muribaculaceae__Muribaculaceae__uncultured_bacterium__ASV120'
p157
(lp158
F20859.45514647211
aF5811.148633831847
aF0.0
aF1397.1278715558467
aF680.187979223349
aF10613.258946083748
aF1771.197602070934
aF8409.564231671642
aF11594.9442632734
aF0.0
aF15738.536223369734
aF16072.520994383003
aF1999.3434991495308
aF10703.534396253766
aF0.0
aF1076.1309925725905
aF758.1152794688605
aF0.0
aF0.0
aF0.0
aF0.0
aF0.0
aF0.0
asS'Desulfobacterota__Desulfovibrionia__Desulfovibrionales__Desulfovibrionaceae__Desulfovibrio__uncultured_bacterium__ASV858'
p159
(lp160
F478.74159352559013
aF219.28862769176826
aF0.0
aF206.1336203934861
aF0.0
aF174.3451161574336
aF0.0
aF0.0
aF0.0
aF0.0
aF0.0
aF2864.134364050941
aF3252.663304586551
aF1505.1845244731855
aF135.82112358024526
aF0.0
aF91.89276114774066
aF0.0
aF396.2250558317121
aF80.32128514056224
aF0.0
aF1492.5373134328372
aF531.3849219528397
asS'Firmicutes__Bacilli__Erysipelotrichales__Erysipelotrichaceae__Dubosiella__uncultured_bacterium__ASV759'
p161
(lp162
F3556.3661233329535
aF4912.0652602956025
aF1644.2705675568423
aF2152.9511463319614
aF4720.092340671117
aF8019.875343241942
aF2702.2117262364336
aF5878.786281074532
aF3943.1336189440904
aF6415.856721633725
aF2473.6402708636047
aF0.0
aF3013.9357225985514
aF3985.9516111049165
aF2835.2659547376097
aF2299.966239027681
aF2481.104550988997
aF5595.573650694221
aF8284.705712844892
aF10361.44578313255
aF4104.903078677308
aF8208.955223880599
aF7616.517214657367
asS'Firmicutes__Clostridia__Lachnospirales__Lachnospiraceae__Lachnospiraceae_NK4A136_group__NA__ASV931'
p163
(lp164
F889.0915308332384
aF0.0
aF0.0
aF0.0
aF0.0
aF414.0696508739043
aF0.0
aF474.5208657369576
aF170.513886224609
aF0.0
aF0.0
aF945.4424114342922
aF746.0236937125122
aF0.0
aF526.3068538734483
aF1477.0425388251203
aF0.0
aF0.0
aF144.0818384842594
aF0.0
aF0.0
aF0.0
aF0.0
asS'Firmicutes__Clostridia__Lachnospirales__Lachnospiraceae__GCA_900066575__uncultured_bacterium__ASV634'
p165
(lp166
F0.0
aF219.28862769176826
aF2239.6099109825896
aF1351.3204003573014
aF0.0
aF0.0
aF0.0
aF0.0
aF319.713536671143
aF737.1409850387679
aF1422.3431557465763
aF0.0
aF0.0
aF0.0
aF0.0
aF738.5212694125591
aF1148.6595143467557
aF876.9182586908855
aF432.24551545277717
aF0.0
aF342.0752565564421
aF0.0
aF132.8462304882097
asS'Firmicutes__Clostridia__Oscillospirales__Oscillospiraceae__uncultured__NA__ASV1096'
p167
(lp168
F0.0
aF657.8658830753037
aF1927.7654929976711
aF572.5933899819062
aF0.0
aF740.9667436690928
aF1816.6129252009614
aF1080.8530830675109
aF511.54165867382795
aF300.3166976083865
aF742.0920812590824
aF1334.7422279072402
aF865.3874847065143
aF836.2136247073255
aF831.9043819289992
aF611.9176232275491
aF850.0080406166014
aF1106.5873264432598
aF360.204596210648
aF0.0
aF475.1045229950586
aF0.0
aF221.41038414701646
asS'Firmicutes__Clostridia__Oscillospirales__Oscillospiraceae__Colidextribacter__uncultured_bacterium__ASV727'
p169
(lp170
F547.133249743531
aF482.43498092188935
aF1445.8241197482532
aF526.785918783353
aF989.3643334157798
aF523.0353484723008
aF1271.629047640671
aF289.9849735059187
aF1726.45309802417
aF1446.9804521131407
aF1082.2176185028309
aF1863.0776931205205
aF1462.2064396765204
aF1867.543761846356
aF1833.585168333301
aF1223.8352464551003
aF804.061660042731
aF1712.0785050631594
aF1314.7467761688686
aF1144.578313253015
aF2736.6020524515347
aF577.7563793933562
aF708.5132292704533
asS'Firmicutes__Clostridia__Lachnospirales__Lachnospiraceae__uncultured__uncultured_bacterium__ASV204'
p171
(lp172
F113.98609369656945
aF0.0
aF0.0
aF0.0
aF0.0
aF0.0
aF749.3528316453974
aF0.0
aF0.0
aF191.1106257507917
aF0.0
aF194.64990823647204
aF477.4551639760082
aF613.2233247853718
aF0.0
aF0.0
aF0.0
aF584.6121724605897
aF288.1636769685178
aF0.0
aF0.0
aF0.0
aF0.0
asS'Firmicutes__Clostridia__Clostridia_vadinBB60_group__Clostridia_vadinBB60_group__Clostridia_vadinBB60_group__uncultured_bacterium__ASV1051'
p173
(lp174
F3032.0300923287377
aF1951.6687864567307
aF0.0
aF0.0
aF0.0
aF10831.190341280533
aF0.0
aF3506.181952389739
aF12937.7411172922
aF9391.72217975319
aF0.0
aF10038.373839052301
aF89.52284324550153
aF0.0
aF0.0
aF9727.380148548282
aF0.0
aF16995.51101367571
aF11688.639147035507
aF6405.6224899598365
aF4332.953249714937
aF240.73182474723194
aF0.0
asS'Firmicutes__Clostridia__Lachnospirales__Lachnospiraceae__NA__NA__ASV346'
p175
(lp176
F0.0
aF0.0
aF0.0
aF0.0
aF0.0
aF0.0
aF0.0
aF158.1736219123192
aF127.88541466845699
aF0.0
aF0.0
aF0.0
aF0.0
aF0.0
aF0.0
aF168.80486158001403
aF0.0
aF187.91105543376094
aF108.06137886319429
aF160.64257028112488
aF0.0
aF0.0
aF0.0
asS'Cyanobacteria__Vampirivibrionia__Gastranaerophilales__Gastranaerophilales__Gastranaerophilales__uncultured_bacterium__ASV1152'
p177
(lp178
F0.0
aF0.0
aF0.0
aF0.0
aF18983.428147415296
aF0.0
aF931.0141241654934
aF0.0
aF0.0
aF0.0
aF0.0
aF0.0
aF0.0
aF55.747574980488366
aF0.0
aF0.0
aF0.0
aF0.0
aF11706.649376846082
aF0.0
aF0.0
aF337.0245546461241
aF38968.22760987495
asS'Bacteroidota__Bacteroidia__Bacteroidales__Prevotellaceae__Prevotellaceae_UCG_001__uncultured_Bacteroidales__ASV86'
p179
(lp180
F0.0
aF87.7154510767072
aF0.0
aF91.61494239710495
aF0.0
aF0.0
aF0.0
aF0.0
aF0.0
aF0.0
aF123.68201354318023
aF139.03564874033702
aF0.0
aF0.0
aF0.0
aF168.80486158001403
aF68.91957086080545
aF62.63701847792032
aF0.0
aF80.32128514056224
aF95.02090459901181
aF216.65864227250813
aF0.0
asS'Firmicutes__Clostridia__Lachnospirales__Lachnospiraceae__uncultured__uncultured_bacterium__ASV986'
p181
(lp182
F0.0
aF0.0
aF0.0
aF0.0
aF0.0
aF0.0
aF749.3528316453974
aF0.0
aF1534.62497602148
aF0.0
aF0.0
aF361.4926867248761
aF1581.5702306705305
aF919.8349871780582
aF0.0
aF1519.2437542201203
aF643.249328034185
aF0.0
aF0.0
aF0.0
aF589.129608513873
aF0.0
aF0.0
asS'Firmicutes__Clostridia__Lachnospirales__Lachnospiraceae__NA__NA__ASV165'
p183
(lp184
F0.0
aF0.0
aF0.0
aF0.0
aF0.0
aF261.5176742361504
aF227.0766156501207
aF0.0
aF191.828122002686
aF0.0
aF0.0
aF0.0
aF387.93232073050615
aF362.35923737317455
aF0.0
aF0.0
aF321.62466401709196
aF0.0
aF306.1739067790508
aF0.0
aF0.0
aF0.0
aF177.12830731761355
asS'Firmicutes__Clostridia__Oscillospirales__Oscillospiraceae__uncultured__uncultured_bacterium__ASV1040'
p185
(lp186
F159.58053117519705
aF0.0
aF0.0
aF0.0
aF0.0
aF1264.0020921413948
aF0.0
aF2135.3438958163088
aF2387.19440714453
aF0.0
aF0.0
aF194.64990823647204
aF0.0
aF0.0
aF3242.729325478346
aF1181.6340310600904
aF0.0
aF1732.9575112224632
aF90.05114905266194
aF783.1325301204815
aF1919.4222729000355
aF0.0
aF0.0
asS'Firmicutes__Clostridia__Lachnospirales__Lachnospiraceae__NA__NA__ASV791'
p187
(lp188
F91.18887495725527
aF0.0
aF396.89289561716816
aF0.0
aF0.0
aF0.0
aF0.0
aF0.0
aF0.0
aF409.5227694659824
aF0.0
aF417.10694622101107
aF0.0
aF0.0
aF220.70932581789754
aF0.0
aF0.0
aF480.21714166405576
aF486.27620488437435
aF0.0
aF0.0
aF0.0
aF553.5259603675416
asS'Firmicutes__Bacilli__Erysipelotrichales__Erysipelotrichaceae__Dubosiella__uncultured_bacterium__ASV61'
p189
(lp190
F7089.935027926594
aF9539.0553045919
aF3742.1330158190126
aF4695.265797851625
aF9605.078736911524
aF14775.74859434254
aF6426.268222898401
aF11151.240344818472
aF9165.121384572762
aF11139.019329474731
aF5596.611112828918
aF1167.8994494188303
aF4714.869744263082
aF8055.524584680567
aF6315.682246481384
aF3924.7130317353112
aF4525.718486526225
aF11232.905313707011
aF15993.084071752744
aF21827.30923694774
aF8722.91904218928
aF15334.617236398639
aF14037.418354920832
asS'Firmicutes__Clostridia__Clostridia_vadinBB60_group__Clostridia_vadinBB60_group__Clostridia_vadinBB60_group__uncultured_bacterium__ASV864'
p191
(lp192
F159.58053117519705
aF0.0
aF368.5434030730853
aF137.4224135956574
aF0.0
aF239.72453471647069
aF386.03024660520504
aF158.1736219123192
aF383.656244005371
aF300.3166976083865
aF216.44352370056615
aF695.1782437016851
aF596.8189549700102
aF501.7281748243955
aF0.0
aF485.31397704253914
aF0.0
aF292.30608623029485
aF540.3068943159715
aF0.0
aF228.05017103762876
aF0.0
aF66.42311524410493
asS'Firmicutes__Clostridia__Clostridia_vadinBB60_group__Clostridia_vadinBB60_group__Clostridia_vadinBB60_group__unidentified__ASV1225'
p193
(lp194
F3100.421748546678
aF4100.697337836058
aF3770.4825083631026
aF618.4008611804584
aF329.7881111385936
aF0.0
aF7152.913392978792
aF0.0
aF767.312488010742
aF3030.4684940482666
aF834.8535914164684
aF1612.8135253879104
aF0.0
aF0.0
aF20016.638087638574
aF6667.792032410531
aF10912.265386294164
aF4990.082472074322
aF0.0
aF5461.847389558229
aF247.0543519574308
aF216.65864227250813
aF0.0
asS'Firmicutes__Clostridia__Lachnospirales__Lachnospiraceae__Blautia__unidentified__ASV841'
p195
(lp196
F182.37774991451033
aF372.7906670760052
aF2182.9109258944295
aF1442.9353427544017
aF0.0
aF828.1393017478097
aF1862.0282483309888
aF395.43405478079853
aF170.513886224609
aF382.2212515015834
aF6895.272255032304
aF778.5996329458873
aF835.5465369580143
aF724.7184747463491
aF1460.0770784876368
aF527.5151924375422
aF2320.292218980447
aF584.6121724605897
aF378.21482602118
aF140.56224899598402
aF95.02090459901181
aF0.0
aF177.12830731761355
asS'Firmicutes__Clostridia__Lachnospirales__Lachnospiraceae__NA__NA__ASV490'
p197
(lp198
F387.5527185683349
aF0.0
aF0.0
aF0.0
aF0.0
aF392.2765113542256
aF0.0
aF606.3322173305571
aF1001.7690815695801
aF0.0
aF0.0
aF778.5996329458873
aF0.0
aF195.11651243170908
aF1867.5404492283624
aF506.41458474004105
aF0.0
aF313.1850923896016
aF0.0
aF461.8473895582328
aF475.1045229950586
aF0.0
aF0.0
asS'Firmicutes__Clostridia__Lachnospirales__Lachnospiraceae__Eubacterium_fissicatena_group__uncultured_bacterium__ASV77'
p199
(lp200
F4491.052091644819
aF4407.701416604533
aF5358.054090831775
aF1122.2830443645357
aF3771.951521147663
aF2113.9345334088844
aF2361.5968027612516
aF1529.0116784857566
aF341.027772449219
aF3194.277601834662
aF8132.092390464118
aF2307.9917690895904
aF865.3874847065143
aF1282.1942245512328
aF101.86584268518395
aF907.3261309925732
aF6960.876656941351
aF1691.1994989038458
aF342.1943664001149
aF2008.0321285140562
aF228.05017103762876
aF457.39046701974013
aF6531.606332336989
asS'Firmicutes__Clostridia__Clostridia_vadinBB60_group__Clostridia_vadinBB60_group__Clostridia_vadinBB60_group__unidentified__ASV457'
p201
(lp202
F866.2943120939251
aF0.0
aF0.0
aF0.0
aF0.0
aF0.0
aF2974.7036650165783
aF0.0
aF0.0
aF409.5227694659824
aF0.0
aF667.3711139536181
aF2506.639610874041
aF4877.912810792736
aF0.0
aF0.0
aF0.0
aF1419.7724188328666
aF0.0
aF582.329317269076
aF0.0
aF0.0
aF0.0
asS'Firmicutes__Clostridia__Lachnospirales__Lachnospiraceae__Eubacterium_xylanophilum_group__uncultured_bacterium__ASV377'
p203
(lp204
F4080.702154337169
aF1644.6647076882568
aF0.0
aF0.0
aF391.62338197707993
aF2331.865928605671
aF590.3992006903129
aF3374.3706007961455
aF3069.24995204297
aF0.0
aF309.2050338579511
aF0.0
aF6863.417982155112
aF9811.573196565956
aF7979.4910103393895
aF0.0
aF0.0
aF4572.502348888186
aF0.0
aF843.3734939759031
aF4979.095400988214
aF312.9513721714013
aF0.0
asS'Bacteroidota__Bacteroidia__Bacteroidales__Muribaculaceae__Muribaculaceae__uncultured_Bacteroidales__ASV984'
p205
(lp206
F2781.2606861962813
aF0.0
aF5414.753075919934
aF893.2456883717731
aF7997.361695110889
aF2222.9002310072774
aF0.0
aF4059.789629082856
aF2451.1371144787604
aF8736.485748607616
aF0.0
aF0.0
aF0.0
aF0.0
aF0.0
aF0.0
aF0.0
aF0.0
aF5979.396297096746
aF0.0
aF0.0
aF6740.4910929224925
aF16738.625041514402
asS'Verrucomicrobiota__Verrucomicrobiae__Verrucomicrobiales__Akkermansiaceae__Akkermansia__uncultured_bacterium__ASV171'
p207
(lp208
F27174.284737262064
aF69317.13521336783
aF33509.100187106626
aF37355.992762419584
aF45696.26514964136
aF60279.82391143265
aF69644.39801989187
aF15922.811272506771
aF34571.6904320396
aF49579.556623348224
aF61315.3582140317
aF6701.518269284242
aF16889.976425651304
aF30493.92351432709
aF77299.1969576069
aF3755.908170155301
aF82565.64589124495
aF10794.44618436157
aF23215.18622577624
aF35321.28514056226
aF14823.261117445869
aF40876.263842079934
aF78401.41702645851
asS'Bacteroidota__Bacteroidia__Bacteroidales__Muribaculaceae__Muribaculaceae__uncultured_Bacteroidales__ASV1360'
p209
(lp210
F53208.708537558465
aF98065.87430375862
aF103730.79321880144
aF161791.98827328734
aF108479.67680765117
aF82312.68796582829
aF90149.4164130978
aF80246.75085018326
aF81676.1515015879
aF33717.374686032585
aF128567.45307813652
aF0.0
aF58219.68905732452
aF37378.74902441741
aF57350.46943175842
aF130823.76772451002
aF124514.69135518857
aF36747.05084037994
aF68096.67891362296
aF69919.67871485942
aF38768.529076396786
aF26745.30572941748
aF16915.75334883209
asS'Firmicutes__Clostridia__Oscillospirales__Ruminococcaceae__Harryflintia__uncultured_bacterium__ASV396'
p211
(lp212
F91.18887495725527
aF0.0
aF0.0
aF183.22988479420954
aF0.0
aF217.931395196792
aF0.0
aF342.70951414335815
aF319.713536671143
aF0.0
aF0.0
aF556.1425949613481
aF417.77326847900713
aF362.35923737317455
aF186.75404492283621
aF316.5091154625251
aF0.0
aF438.45912934544225
aF270.15344715798574
aF0.0
aF209.04599011782568
aF0.0
aF0.0
asS'Firmicutes__Clostridia__Clostridia_vadinBB60_group__Clostridia_vadinBB60_group__Clostridia_vadinBB60_group__unidentified__ASV110'
p213
(lp214
F6041.262965918162
aF0.0
aF8561.5467483132
aF1786.4913767435503
aF267.95284030010725
aF6864.838948698951
aF1135.3830782505984
aF3400.7328711148584
aF6479.52767653516
aF1337.774380255537
aF1082.2176185028309
aF11067.237639730803
aF19933.75309599831
aF18619.690043483075
aF10628.002920154113
aF9410.871033085752
aF183.78552229548168
aF8873.577617705383
aF13903.897413731038
aF3433.734939759035
aF7525.655644241739
aF938.8541165142041
aF199.2693457323145
asS'Firmicutes__Clostridia__Lachnospirales__Lachnospiraceae__uncultured__NA__ASV905'
p215
(lp216
F0.0
aF2302.5305907635593
aF623.6888359698361
aF0.0
aF0.0
aF370.4833718345459
aF8106.635178709299
aF790.8681095615959
aF0.0
aF0.0
aF0.0
aF0.0
aF0.0
aF0.0
aF0.0
aF105.50303848750802
aF0.0
aF1023.0713018060349
aF684.3887328002309
aF220.88353413654647
aF0.0
aF0.0
aF0.0
asS'Firmicutes__Clostridia__Lachnospirales__Lachnospiraceae__A2__uncultured_bacterium__ASV30'
p217
(lp218
F0.0
aF0.0
aF0.0
aF0.0
aF0.0
aF0.0
aF0.0
aF474.5208657369576
aF149.199650446533
aF0.0
aF0.0
aF0.0
aF0.0
aF0.0
aF0.0
aF0.0
aF0.0
aF0.0
aF0.0
aF0.0
aF171.03762827822158
aF192.58545979778535
aF0.0
asS'Firmicutes__Bacilli__RF39__RF39__RF39__unidentified__ASV594'
p219
(lp220
F0.0
aF131.57317661506053
aF0.0
aF0.0
aF0.0
aF0.0
aF0.0
aF0.0
aF0.0
aF0.0
aF0.0
aF0.0
aF0.0
aF0.0
aF0.0
aF2046.7589466576603
aF0.0
aF626.3701847792041
aF0.0
aF763.0522088353417
aF0.0
aF625.9027443428026
aF0.0
asS'Firmicutes__Clostridia__Lachnospirales__Lachnospiraceae__Lachnospiraceae_NK4A136_group__NA__ASV585'
p221
(lp222
F1846.5747178844165
aF0.0
aF0.0
aF0.0
aF0.0
aF806.34616222813
aF0.0
aF15870.086731869344
aF4987.53117206983
aF0.0
aF0.0
aF1890.8848228685804
aF7012.6227208976225
aF4459.805998439073
aF9439.568088827014
aF11858.541525995903
aF0.0
aF2254.9326652051377
aF4304.444924717236
aF1104.4176706827272
aF3040.6689471683803
aF192.58545979778535
aF0.0
asS'Firmicutes__Clostridia__Oscillospirales__Oscillospiraceae__NA__NA__ASV23'
p223
(lp224
F0.0
aF307.004078768475
aF0.0
aF206.1336203934861
aF0.0
aF283.3108137558291
aF635.8145238203365
aF606.3322173305571
aF255.77082933691398
aF300.3166976083865
aF0.0
aF695.1782437016851
aF507.29611172450814
aF1059.2039246292802
aF458.3962920833267
aF0.0
aF183.78552229548168
aF626.3701847792041
aF108.06137886319429
aF140.56224899598402
aF551.1212466742688
aF0.0
aF0.0
asS'Bacteroidota__Bacteroidia__Bacteroidales__Prevotellaceae__Alloprevotella__gut_metagenome__ASV217'
p225
(lp226
F182.37774991451033
aF570.1504319985961
aF198.44644780858408
aF0.0
aF391.62338197707993
aF283.3108137558291
aF386.03024660520504
aF263.62270318719897
aF149.199650446533
aF300.3166976083865
aF216.44352370056615
aF500.5283354652131
aF387.93232073050615
aF390.23302486341817
aF679.1056179012244
aF0.0
aF229.73190286935116
aF375.82211086752187
aF180.1022981053235
aF200.80321285140562
aF456.1003420752565
aF529.6100144439094
aF154.9872689029116
asS'Firmicutes__Clostridia__Oscillospirales__Oscillospiraceae__uncultured__uncultured_bacterium__ASV1290'
p227
(lp228
F1709.7914054485368
aF307.004078768475
aF3997.278448715772
aF1694.87643434644
aF742.0232500618354
aF3443.3160441093146
aF2248.058494936188
aF5826.061740437086
aF2579.0225291472198
aF1474.2819700775317
aF4205.1884604681345
aF4449.140759690781
aF2655.8443496165405
aF1951.1651243170907
aF1731.719325648117
aF3165.091154625251
aF987.8471823382117
aF3987.8901764276
aF2215.2582666954813
aF1325.3012048192747
aF3458.7609274040296
aF433.31728454501734
aF420.679729879331
asS'Bacteroidota__Bacteroidia__Bacteroidales__Muribaculaceae__Muribaculaceae__uncultured_Bacteroidales__ASV1198'
p229
(lp230
F0.0
aF0.0
aF0.0
aF0.0
aF0.0
aF414.0696508739043
aF0.0
aF1212.6644346611142
aF0.0
aF3330.785191656657
aF0.0
aF0.0
aF0.0
aF0.0
aF0.0
aF0.0
aF0.0
aF0.0
aF738.419422231828
aF0.0
aF0.0
aF4838.709677419359
aF2435.5142256171844
asS'Proteobacteria__Gammaproteobacteria__Burkholderiales__Sutterellaceae__Parasutterella__Burkholderiales_bacterium__ASV1138'
p231
(lp232
F68.39165621794137
aF350.8618043068288
aF255.1454328967508
aF0.0
aF247.34108335394544
aF152.5519766377539
aF0.0
aF184.5358922310389
aF0.0
aF81.90455389319648
aF123.68201354318023
aF194.64990823647204
aF0.0
aF167.2427249414655
aF220.70932581789754
aF253.20729237002004
aF0.0
aF0.0
aF216.12275772638858
aF160.64257028112488
aF437.09616115545447
aF457.39046701974013
aF110.70519207350873
asS'Actinobacteriota__Actinobacteria__Bifidobacteriales__Bifidobacteriaceae__Bifidobacterium__Bifidobacterium_pseudolongum__ASV49'
p233
(lp234
F1846.5747178844165
aF2280.601727994382
aF0.0
aF0.0
aF1113.0348750927544
aF653.794185590376
aF113.53830782505985
aF0.0
aF532.855894451904
aF1173.9652724691512
aF0.0
aF1724.0420443801804
aF0.0
aF1505.1845244731855
aF203.73168537036688
aF126.60364618501002
aF390.54423487789813
aF104.39503079653386
aF1566.8899935163195
aF0.0
aF114.02508551881438
aF1348.0982185844985
aF642.0901140263484
asS'Deferribacterota__Deferribacteres__Deferribacterales__Deferribacteraceae__Mucispirillum__NA__ASV1007'
p235
(lp236
F0.0
aF0.0
aF0.0
aF0.0
aF103.05878473080993
aF0.0
aF90.83064626004817
aF52.7245406374397
aF63.942707334228494
aF0.0
aF0.0
aF250.26416773260704
aF0.0
aF83.62136247073254
aF118.84348313271461
aF0.0
aF0.0
aF41.75801231861355
aF54.030689431597146
aF80.32128514056224
aF114.02508551881438
aF0.0
aF0.0
asS'Bacteroidota__Bacteroidia__Bacteroidales__Muribaculaceae__Muribaculaceae__uncultured_bacterium__ASV139'
p237
(lp238
F0.0
aF0.0
aF0.0
aF0.0
aF41.22351389232418
aF0.0
aF68.1229846950361
aF0.0
aF0.0
aF0.0
aF0.0
aF0.0
aF0.0
aF9727.951834095222
aF187823.63627103105
aF84.40243079000682
aF0.0
aF83.51602463722719
aF108.06137886319429
aF80.32128514056224
aF0.0
aF96.29272989889267
aF0.0
asS'Firmicutes__Clostridia__Lachnospirales__Lachnospiraceae__NA__NA__ASV1342'
p239
(lp240
F0.0
aF87.7154510767072
aF0.0
aF0.0
aF0.0
aF0.0
aF0.0
aF0.0
aF0.0
aF0.0
aF0.0
aF0.0
aF566.9780072215092
aF250.86408741219722
aF0.0
aF211.00607697501707
aF0.0
aF0.0
aF0.0
aF180.72289156626474
aF0.0
aF0.0
aF0.0
asS'Firmicutes__Clostridia__Oscillospirales__Ruminococcaceae__Negativibacillus__unidentified__ASV1260'
p241
(lp242
F1618.6025304912837
aF0.0
aF2154.56143335034
aF0.0
aF0.0
aF108.9656975983955
aF0.0
aF2899.849735059187
aF2003.5381631391601
aF655.236431145572
aF0.0
aF3753.9625159891007
aF2357.434872131541
aF1811.7961868658729
aF2580.6013480246497
aF2932.9844699527307
aF2779.7560247191514
aF3319.76197932978
aF0.0
aF0.0
aF2413.5309768149014
aF48.14636494944639
aF0.0
asS'Actinobacteriota__Coriobacteriia__Coriobacteriales__Eggerthellaceae__Enterorhabdus__uncultured_bacterium__ASV1373'
p243
(lp244
F227.97218739313792
aF635.9370203061274
aF396.89289561716816
aF0.0
aF659.5762222771862
aF0.0
aF0.0
aF0.0
aF0.0
aF0.0
aF1236.8201354318023
aF0.0
aF358.09137298200613
aF418.10681235366275
aF322.5751685030815
aF844.0243079000671
aF183.78552229548168
aF0.0
aF0.0
aF261.0441767068272
aF0.0
aF0.0
aF0.0
asS'Desulfobacterota__Desulfovibrionia__Desulfovibrionales__Desulfovibrionaceae__uncultured__uncultured_bacterium__ASV823'
p245
(lp246
F0.0
aF87.7154510767072
aF0.0
aF0.0
aF0.0
aF65.3794185590376
aF90.83064626004817
aF105.4490812748798
aF42.6284715561524
aF109.20607185759484
aF123.68201354318023
aF0.0
aF0.0
aF0.0
aF169.77640447530558
aF168.80486158001403
aF0.0
aF0.0
aF72.04091924212949
aF0.0
aF0.0
aF216.65864227250813
aF0.0
asS'Firmicutes__Clostridia__Oscillospirales__Ruminococcaceae__Incertae_Sedis__uncultured_bacterium__ASV1141'
p247
(lp248
F0.0
aF0.0
aF0.0
aF0.0
aF0.0
aF239.72453471647069
aF0.0
aF0.0
aF0.0
aF0.0
aF216.44352370056615
aF0.0
aF298.4094774850051
aF0.0
aF407.4633707407348
aF168.80486158001403
aF0.0
aF229.6690677523745
aF234.13298753692064
aF0.0
aF0.0
aF0.0
aF154.9872689029116
asS'Firmicutes__Clostridia__Lachnospirales__Lachnospiraceae__Lachnospiraceae_NK4A136_group__uncultured_bacterium__ASV976'
p249
(lp250
F0.0
aF0.0
aF283.49492544083466
aF0.0
aF0.0
aF3530.4886021880293
aF0.0
aF0.0
aF1534.62497602148
aF273.0151796439886
aF4390.7114807829075
aF0.0
aF417.77326847900713
aF0.0
aF7062.698426172734
aF1751.3504388926403
aF505.41018631257367
aF2317.569683683049
aF612.3478135581007
aF582.329317269076
aF171.03762827822158
aF0.0
aF420.679729879331
asS'Firmicutes__Clostridia__Oscillospirales__Eubacterium_coprostanoligenes_group__Eubacterium_coprostanoligenes_group__NA__ASV432'
p251
(lp252
F6200.843497093356
aF3640.1912196833423
aF141.74746272041733
aF2221.6623531297987
aF185.50581251545907
aF501.2422089526212
aF635.8145238203365
aF1265.3889752985494
aF724.68401645459
aF819.0455389319648
aF92.76151015738533
aF1195.7065791669002
aF566.9780072215092
aF1672.4272494146549
aF2699.4448311573647
aF1899.0546927751504
aF321.62466401709196
aF1023.0713018060349
aF522.2966645054395
aF1305.220883534136
aF760.1672367920945
aF866.6345690900347
aF774.9363445145581
asS'Firmicutes__Clostridia__Oscillospirales__Oscillospiraceae__NA__NA__ASV1319'
p253
(lp254
F0.0
aF0.0
aF0.0
aF0.0
aF0.0
aF0.0
aF0.0
aF395.43405478079853
aF255.77082933691398
aF0.0
aF0.0
aF0.0
aF0.0
aF0.0
aF373.5080898456735
aF0.0
aF0.0
aF0.0
aF0.0
aF0.0
aF266.0585328772329
aF0.0
aF0.0
asS'Firmicutes__Clostridia__Lachnospirales__Lachnospiraceae__Lachnoclostridium__NA__ASV237'
p255
(lp256
F1481.8192180553938
aF3771.764396298407
aF1871.0665079095113
aF4122.6724078697225
aF0.0
aF1525.519766377539
aF1612.2439711158524
aF2319.879788047348
aF1385.42532557495
aF1201.2667904335522
aF3741.3809096812092
aF1890.8848228685804
aF1999.3434991495308
aF1031.3301371390387
aF1103.5466290894929
aF337.60972316002704
aF1585.1501297985242
aF2275.8116713644413
aF756.42965204236
aF341.3654618473896
aF1216.26757886735
aF0.0
aF1682.7189195173298
asS'Firmicutes__Clostridia__Lachnospirales__Lachnospiraceae__NA__NA__ASV906'
p257
(lp258
F227.97218739313792
aF394.71952984518265
aF1133.9797017633348
aF366.45976958842004
aF556.5174375463763
aF348.6902323148672
aF1634.9516326808712
aF237.26043286847928
aF170.513886224609
aF1583.4880419351357
aF1174.9791286602176
aF0.0
aF507.29611172450814
aF696.8446872561045
aF0.0
aF0.0
aF1562.1769395115887
aF897.7972648501923
aF0.0
aF80.32128514056224
aF456.1003420752565
aF0.0
aF531.3849219528397
asS'Firmicutes__Clostridia__Oscillospirales__Oscillospiraceae__uncultured__uncultured_bacterium__ASV142'
p259
(lp260
F843.4970933546107
aF811.3679224595408
aF2806.5997618642573
aF2702.640800714593
aF0.0
aF1111.4501155036437
aF4087.3790817021677
aF2240.7929770911896
aF1023.08331734766
aF1201.2667904335522
aF2442.7197674778126
aF1724.0420443801804
aF3282.504252335051
aF0.0
aF1697.7640447530557
aF717.4206617150571
aF1906.7747938156142
aF2254.9326652051377
aF306.1739067790508
aF0.0
aF1444.3177499049789
aF0.0
aF0.0
asS'Bacteroidota__Bacteroidia__Bacteroidales__Muribaculaceae__Muribaculaceae__uncultured_bacterium__ASV1285'
p261
(lp262
F0.0
aF0.0
aF0.0
aF0.0
aF0.0
aF7954.495924682906
aF9105.772287569825
aF3743.4423852582236
aF2046.16663469531
aF11903.461832477898
aF0.0
aF0.0
aF0.0
aF0.0
aF0.0
aF0.0
aF0.0
aF0.0
aF1098.624018442478
aF0.0
aF0.0
aF649.9759268175255
aF3166.1684933023394
asS'Bacteroidota__Bacteroidia__Bacteroidales__Muribaculaceae__Muribaculaceae__NA__ASV338'
p263
(lp264
F0.0
aF0.0
aF0.0
aF0.0
aF0.0
aF675.5873251100547
aF249.78427721513248
aF289.9849735059187
aF682.055544898438
aF2156.819919187506
aF0.0
aF0.0
aF19993.434991495305
aF27818.0399152637
aF45024.702466851144
aF0.0
aF1516.230558937717
aF0.0
aF2053.1661984006955
aF0.0
aF0.0
aF3827.636013480987
aF7262.260600022144
asS'Firmicutes__Clostridia__Oscillospirales__Oscillospiraceae__uncultured__NA__ASV969'
p265
(lp266
F0.0
aF153.50203938423797
aF1729.3190451890919
aF0.0
aF0.0
aF523.0353484723008
aF658.5221853853492
aF1660.82303007935
aF426.284715561524
aF218.41214371519067
aF432.8870474011313
aF0.0
aF626.6599027185102
aF195.11651243170908
aF0.0
aF844.0243079000671
aF964.873992051277
aF1294.4983818770238
aF0.0
aF160.64257028112488
aF1064.2341315089275
aF0.0
aF0.0
asS'Firmicutes__Clostridia__Oscillospirales__Ruminococcaceae__Paludicola__uncultured_bacterium__ASV62'
p267
(lp268
F0.0
aF0.0
aF0.0
aF0.0
aF0.0
aF0.0
aF0.0
aF0.0
aF106.571178890381
aF0.0
aF0.0
aF0.0
aF268.5685297365041
aF139.36893745122092
aF203.73168537036688
aF189.90546927751504
aF0.0
aF0.0
aF0.0
aF0.0
aF323.07107563664005
aF0.0
aF0.0
asS'Bacteroidota__Bacteroidia__Bacteroidales__Muribaculaceae__Muribaculaceae__NA__ASV182'
p269
(lp270
F0.0
aF30239.901758694778
aF0.0
aF0.0
aF6987.3856047489435
aF31120.603234101865
aF21186.2482401562
aF24306.013233859707
aF31395.869301106202
aF38058.31604237196
aF14656.318604866854
aF0.0
aF0.0
aF0.0
aF0.0
aF0.0
aF0.0
aF117089.46654139225
aF38649.95317340246
aF109156.62650602405
aF114842.26529836547
aF69619.64371689942
aF66290.26901361674
asS'Firmicutes__Bacilli__Lactobacillales__Lactobacillaceae__Lactobacillus__Lactobacillus_apodemi__ASV163'
p271
(lp272
F227.97218739313792
aF219.28862769176826
aF0.0
aF0.0
aF535.9056806002145
aF326.8970927951875
aF204.3689540851079
aF316.3472438246384
aF170.513886224609
aF191.1106257507917
aF247.36402708636047
aF250.26416773260704
aF0.0
aF222.99029992195364
aF322.5751685030815
aF316.5091154625251
aF275.6782834432216
aF334.0640985489084
aF1008.5728693898127
aF220.88353413654647
aF399.08779931584934
aF1203.6591237361597
aF907.7825750027678
asS'Bacteroidota__Bacteroidia__Bacteroidales__Muribaculaceae__Muribaculaceae__uncultured_bacterium__ASV1073'
p273
(lp274
F0.0
aF0.0
aF226.79594035266794
aF114.51867799638083
aF371.0116250309172
aF196.1382556771123
aF204.3689540851079
aF421.7963250995182
aF191.828122002686
aF0.0
aF185.52302031477086
aF278.07129748067405
aF328.25042523350515
aF139.36893745122092
aF305.59752805555087
aF0.0
aF183.78552229548168
aF208.79006159306772
aF270.15344715798574
aF180.72289156626474
aF266.0585328772329
aF288.87818969667853
aF0.0
asS'Firmicutes__Clostridia__Clostridia_vadinBB60_group__Clostridia_vadinBB60_group__Clostridia_vadinBB60_group__unidentified__ASV710'
p275
(lp276
F3852.7299669440363
aF0.0
aF4677.666269773768
aF2496.50718032111
aF0.0
aF2026.7619753301692
aF12352.967891366528
aF2082.6193551788733
aF1449.36803290918
aF0.0
aF958.5356049596486
aF5922.9186363383615
aF4565.665005520581
aF4404.05842345858
aF5755.420111712872
aF2532.0729237002006
aF918.9276114774066
aF2839.544837665723
aF2053.1661984006955
aF602.4096385542167
aF2565.5644241733235
aF0.0
aF0.0
asS'Firmicutes__Clostridia__Oscillospirales__Oscillospiraceae__Colidextribacter__uncultured_bacterium__ASV927'
p277
(lp278
F0.0
aF899.0833735362484
aF1502.523104836423
aF68.7112067978287
aF989.3643334157798
aF0.0
aF1862.0282483309888
aF0.0
aF2642.96523648145
aF1965.7092934367188
aF1051.2971151170386
aF0.0
aF0.0
aF0.0
aF1511.0099998302285
aF2067.8595543551705
aF1700.0160812332028
aF0.0
aF0.0
aF0.0
aF4446.978335233751
aF818.488204140588
aF974.2056902468727
asS'Firmicutes__Bacilli__Erysipelotrichales__Erysipelotrichaceae__Dubosiella__uncultured_bacterium__ASV840'
p279
(lp280
F14704.206086857424
aF19187.754923029697
aF5953.393434257522
aF7970.499988548133
aF19313.216258553817
aF27524.73521335478
aF9945.95576547527
aF22935.175177286248
aF15197.0501097683
aF20721.852134978744
aF9647.19705636807
aF1223.5137089149703
aF11070.991614693703
aF14550.117069907506
aF11375.01909984554
aF7891.627278865632
aF9028.463782765515
aF19688.902808226336
aF27141.4163244723
aF38594.37751004019
aF14918.282022044814
aF27924.891670678862
aF27189.195173253604
asS'Firmicutes__Clostridia__Oscillospirales__Ruminococcaceae__uncultured__uncultured_bacterium__ASV1128'
p281
(lp282
F0.0
aF0.0
aF1871.0665079095113
aF0.0
aF0.0
aF0.0
aF1521.4133248558073
aF0.0
aF404.970479783447
aF0.0
aF1329.581645589189
aF1056.6709304265603
aF746.0236937125122
aF668.970899765861
aF0.0
aF443.1127616475351
aF987.8471823382117
aF0.0
aF180.1022981053235
aF0.0
aF988.2174078297232
aF0.0
aF0.0
asS'Actinobacteriota__Coriobacteriia__Coriobacteriales__Eggerthellaceae__Enterorhabdus__uncultured_bacterium__ASV1157'
p283
(lp284
F0.0
aF0.0
aF0.0
aF68.7112067978287
aF0.0
aF0.0
aF0.0
aF0.0
aF0.0
aF0.0
aF0.0
aF0.0
aF0.0
aF0.0
aF67.91056179012244
aF189.90546927751504
aF0.0
aF0.0
aF0.0
aF0.0
aF0.0
aF0.0
aF0.0
asS'Bacteroidota__Bacteroidia__Bacteroidales__Muribaculaceae__Muribaculaceae__uncultured_Bacteroidales__ASV185'
p285
(lp286
F0.0
aF0.0
aF0.0
aF0.0
aF0.0
aF435.862790393584
aF0.0
aF369.0717844620778
aF0.0
aF1064.7592006115574
aF0.0
aF0.0
aF9877.353704753663
aF14438.62191994654
aF22750.038199690982
aF0.0
aF895.9544211904708
aF0.0
aF954.5421799582166
aF0.0
aF0.0
aF2022.147327876743
aF3963.2458762315914
asS'Bacteroidota__Bacteroidia__Bacteroidales__Muribaculaceae__Muribaculaceae__uncultured_bacterium__ASV1270'
p287
(lp288
F0.0
aF0.0
aF0.0
aF0.0
aF0.0
aF2636.9698818811826
aF544.9838775602884
aF5377.90314501885
aF1598.5676833557102
aF16599.32292235452
aF0.0
aF0.0
aF0.0
aF139.36893745122092
aF0.0
aF0.0
aF0.0
aF0.0
aF2701.5344715798574
aF0.0
aF0.0
aF25782.37843042849
aF4760.323259160853
asS'Bacteroidota__Bacteroidia__Bacteroidales__Bacteroidaceae__Bacteroides__Bacteroides_vulgatus__ASV669'
p289
(lp290
F0.0
aF0.0
aF255.1454328967508
aF0.0
aF123.67054167697272
aF0.0
aF0.0
aF0.0
aF0.0
aF218.41214371519067
aF0.0
aF0.0
aF0.0
aF0.0
aF0.0
aF0.0
aF68.91957086080545
aF250.54807391168129
aF0.0
aF261.0441767068272
aF0.0
aF337.0245546461241
aF0.0
asS'Bacteroidota__Bacteroidia__Bacteroidales__Muribaculaceae__Muribaculaceae__uncultured_bacterium__ASV1278'
p291
(lp292
F19947.566396899583
aF22696.372966097984
aF32119.975052446523
aF11108.311765648945
aF47200.92340671117
aF21182.931613128218
aF14192.288478132481
aF10597.632668125407
aF25299.9978685764
aF7071.093152779288
aF40103.89289137627
aF0.0
aF18889.319924800806
aF10926.5246961757
aF22003.02201999965
aF44269.07494935851
aF29819.200992441856
aF271.42708007098804
aF3674.08688134861
aF0.0
aF95.02090459901181
aF7029.36928261917
aF12111.148012841773
asS'Bacteroidota__Bacteroidia__Bacteroidales__Muribaculaceae__Muribaculaceae__uncultured_Bacteroidales__ASV1303'
p293
(lp294
F0.0
aF0.0
aF0.0
aF0.0
aF0.0
aF4031.7308111406496
aF1521.4133248558073
aF4534.310494819814
aF4731.76034273291
aF11439.336027083122
aF0.0
aF0.0
aF0.0
aF0.0
aF0.0
aF0.0
aF0.0
aF0.0
aF1638.9309127584495
aF0.0
aF0.0
aF13769.860375541703
aF4671.7591055020475
asS'Firmicutes__Clostridia__Lachnospirales__Lachnospiraceae__NA__NA__ASV281'
p295
(lp296
F5220.5630913028635
aF635.9370203061274
aF1389.1251346600936
aF0.0
aF288.56459724626905
aF5099.594647604936
aF0.0
aF4903.382279281892
aF11253.9164908242
aF1938.407775472318
aF2102.5942302340673
aF6006.340025582562
aF18710.27423830981
aF13184.301482885518
aF0.0
aF7828.325455773132
aF390.54423487789813
aF10731.80916588368
aF5907.355377854627
aF2369.4779116465857
aF7886.73508171798
aF385.1709195955707
aF199.2693457323145
asS'Firmicutes__Clostridia__Lachnospirales__Lachnospiraceae__NA__NA__ASV282'
p297
(lp298
F6770.773965576198
aF241.21749046094467
aF0.0
aF0.0
aF0.0
aF1046.0706969445976
aF18370.49820609475
aF2820.7629241030286
aF1300.16838246265
aF0.0
aF0.0
aF5839.497247094151
aF5401.2115424785925
aF2452.893299141489
aF6909.899662144958
aF759.6218771100612
aF0.0
aF7015.346069527078
aF0.0
aF602.4096385542167
aF1900.4180919802363
aF0.0
aF0.0
asS'Bacteroidota__Bacteroidia__Bacteroidales__Muribaculaceae__Muribaculaceae__uncultured_Bacteroidales__ASV966'
p299
(lp300
F0.0
aF0.0
aF0.0
aF0.0
aF0.0
aF501.2422089526212
aF0.0
aF26.3622703187199
aF767.312488010742
aF27.301517964398858
aF0.0
aF0.0
aF0.0
aF0.0
aF0.0
aF0.0
aF0.0
aF0.0
aF0.0
aF0.0
aF0.0
aF0.0
aF44.282076829403294
asS'Firmicutes__Clostridia__Oscillospirales__Butyricicoccaceae__Butyricicoccus__uncultured_bacterium__ASV749'
p301
(lp302
F0.0
aF0.0
aF0.0
aF183.22988479420954
aF0.0
aF217.931395196792
aF2066.397202416098
aF369.0717844620778
aF191.828122002686
aF81.90455389319648
aF123.68201354318023
aF55.614259496134814
aF0.0
aF0.0
aF271.64224716048955
aF84.40243079000682
aF0.0
aF0.0
aF0.0
aF60.240963855421676
aF76.01672367920945
aF0.0
aF0.0
asS'Bacteroidota__Bacteroidia__Bacteroidales__Prevotellaceae__Alloprevotella__uncultured_Bacteroidales__ASV708'
p303
(lp304
F68.39165621794137
aF87.7154510767072
aF85.04847763225031
aF0.0
aF0.0
aF65.3794185590376
aF0.0
aF0.0
aF0.0
aF0.0
aF0.0
aF0.0
aF0.0
aF0.0
aF0.0
aF63.30182309250512
aF45.94638057387033
aF125.27403695584064
aF0.0
aF0.0
aF0.0
aF144.43909484833875
aF0.0
asS'Firmicutes__Clostridia__Lachnospirales__Lachnospiraceae__Lachnoclostridium__NA__ASV157'
p305
(lp306
F752.3082183973556
aF0.0
aF425.24238816125205
aF1030.6681019674356
aF0.0
aF937.1049993462051
aF2157.227848676143
aF1318.113515935995
aF0.0
aF873.6485748607616
aF587.4895643301069
aF1251.3208386630304
aF1462.2064396765204
aF0.0
aF814.9267414814695
aF801.8230925050641
aF1722.9892715201386
aF1085.7083202839563
aF0.0
aF0.0
aF285.062713797035
aF409.2441020702935
aF0.0
asS'Firmicutes__Clostridia__Clostridia_vadinBB60_group__Clostridia_vadinBB60_group__Clostridia_vadinBB60_group__uncultured_Clostridia__ASV158'
p307
(lp308
F0.0
aF0.0
aF0.0
aF320.6522983898669
aF0.0
aF0.0
aF454.15323130024035
aF316.3472438246384
aF277.08506511499
aF300.3166976083865
aF0.0
aF583.9497247094151
aF268.5685297365041
aF362.35923737317455
aF441.4186516357961
aF147.70425388251203
aF413.51742516483284
aF0.0
aF378.21482602118
aF220.88353413654647
aF0.0
aF0.0
aF110.70519207350873
asS'Firmicutes__Clostridia__Clostridia_vadinBB60_group__Clostridia_vadinBB60_group__Clostridia_vadinBB60_group__uncultured_bacterium__ASV761'
p309
(lp310
F0.0
aF197.3597649225908
aF793.7857912343363
aF343.5560339891435
aF0.0
aF653.794185590376
aF0.0
aF0.0
aF2408.50864292261
aF191.1106257507917
aF773.0125846448777
aF0.0
aF0.0
aF0.0
aF2835.2659547376097
aF358.71033085752913
aF390.54423487789813
aF0.0
aF0.0
aF622.4899598393577
aF1311.2884834663655
aF0.0
aF0.0
asS'Firmicutes__Clostridia__Lachnospirales__Lachnospiraceae__uncultured__uncultured_bacterium__ASV66'
p311
(lp312
F0.0
aF0.0
aF481.9413732494188
aF0.0
aF0.0
aF0.0
aF908.3064626004816
aF0.0
aF1214.9114393503398
aF0.0
aF773.0125846448777
aF0.0
aF328.25042523350515
aF390.23302486341817
aF1069.5913481944315
aF0.0
aF1562.1769395115887
aF0.0
aF0.0
aF0.0
aF247.0543519574308
aF0.0
aF265.69246097642036
asS'Actinobacteriota__Coriobacteriia__Coriobacteriales__Atopobiaceae__Coriobacteriaceae_UCG_002__uncultured_bacterium__ASV1249'
p313
(lp314
F0.0
aF241.21749046094467
aF0.0
aF68.7112067978287
aF0.0
aF0.0
aF90.83064626004817
aF131.81135159359948
aF0.0
aF0.0
aF92.76151015738533
aF0.0
aF0.0
aF0.0
aF0.0
aF0.0
aF0.0
aF0.0
aF0.0
aF160.64257028112488
aF0.0
aF120.36591237361597
aF0.0
asS'Actinobacteriota__Actinobacteria__Bifidobacteriales__Bifidobacteriaceae__Bifidobacterium__Bifidobacterium_pseudolongum__ASV493'
p315
(lp316
F0.0
aF0.0
aF113.39797017633347
aF366.45976958842004
aF742.0232500618354
aF0.0
aF0.0
aF1239.026704979837
aF0.0
aF0.0
aF0.0
aF0.0
aF1014.5922234490204
aF0.0
aF0.0
aF0.0
aF0.0
aF0.0
aF0.0
aF0.0
aF0.0
aF0.0
aF0.0
asS'Firmicutes__Clostridia__Oscillospirales__Oscillospiraceae__Colidextribacter__NA__ASV365'
p317
(lp318
F0.0
aF855.2256479978945
aF0.0
aF229.03735599276266
aF0.0
aF1002.4844179052402
aF1339.7520323357073
aF1291.7512456172724
aF1491.99650446533
aF0.0
aF278.2845304721558
aF2558.2559368222005
aF0.0
aF0.0
aF1629.8534829629432
aF759.6218771100612
aF0.0
aF897.7972648501923
aF0.0
aF0.0
aF1482.3261117445868
aF0.0
aF0.0
asS'Firmicutes__Clostridia__Lachnospirales__Lachnospiraceae__Lachnospiraceae_NK4A136_group__NA__ASV1179'
p319
(lp320
F2051.7496865382464
aF0.0
aF0.0
aF0.0
aF0.0
aF0.0
aF0.0
aF0.0
aF660.741309120362
aF1092.0607185759484
aF0.0
aF6923.975307268781
aF6117.3942884426015
aF3985.9516111049165
aF2495.713145786997
aF0.0
aF0.0
aF3257.1249608518588
aF0.0
aF0.0
aF1121.2466742683348
aF0.0
aF0.0
asS'Firmicutes__Clostridia__Peptococcales__Peptococcaceae__uncultured__uncultured_bacterium__ASV1002'
p321
(lp322
F0.0
aF0.0
aF0.0
aF0.0
aF267.95284030010725
aF0.0
aF0.0
aF0.0
aF0.0
aF409.5227694659824
aF278.2845304721558
aF0.0
aF0.0
aF0.0
aF475.3739325308574
aF506.41458474004105
aF160.81233200854598
aF0.0
aF0.0
aF0.0
aF0.0
aF0.0
aF0.0
asS'Firmicutes__Clostridia__Oscillospirales__Oscillospiraceae__Colidextribacter__uncultured_bacterium__ASV1255'
p323
(lp324
F0.0
aF0.0
aF1474.1736122923433
aF984.8606307688783
aF0.0
aF283.3108137558291
aF0.0
aF263.62270318719897
aF0.0
aF0.0
aF865.7740948022627
aF305.87842722874103
aF238.7275819880041
aF0.0
aF0.0
aF0.0
aF0.0
aF501.09614782336257
aF0.0
aF0.0
aF0.0
aF0.0
aF0.0
asS'Firmicutes__Clostridia__Lachnospirales__Lachnospiraceae__NA__NA__ASV41'
p325
(lp326
F0.0
aF2763.0367089162755
aF141.74746272041733
aF3206.5229838986693
aF1154.258388985072
aF0.0
aF0.0
aF0.0
aF0.0
aF0.0
aF0.0
aF0.0
aF0.0
aF0.0
aF0.0
aF3502.7008777852807
aF0.0
aF0.0
aF0.0
aF0.0
aF0.0
aF0.0
aF0.0
asS'Bacteroidota__Bacteroidia__Bacteroidales__Muribaculaceae__Muribaculaceae__uncultured_Bacteroidales__ASV398'
p327
(lp328
F2963.638436110798
aF1820.0956098416762
aF3713.7835232749326
aF801.6307459746679
aF7296.561958941381
aF2244.693370526956
aF794.768154775421
aF3558.9064930271848
aF1577.25344757764
aF8326.962979141641
aF0.0
aF0.0
aF0.0
aF0.0
aF0.0
aF0.0
aF0.0
aF0.0
aF6213.5292846336715
aF0.0
aF0.0
aF7510.832932113626
aF15985.829735414638
asS'Firmicutes__Clostridia__Lachnospirales__Lachnospiraceae__Lachnospiraceae_NK4A136_group__NA__ASV1419'
p329
(lp330
F22.79721873931379
aF0.0
aF0.0
aF0.0
aF0.0
aF0.0
aF0.0
aF158.1736219123192
aF63.942707334228494
aF0.0
aF0.0
aF55.614259496134814
aF29.84094774850051
aF27.873787490244183
aF16.977640447530558
aF0.0
aF0.0
aF20.879006159306776
aF36.020459621064795
aF0.0
aF38.008361839604724
aF0.0
aF0.0
asS'Firmicutes__Clostridia__Clostridia_vadinBB60_group__Clostridia_vadinBB60_group__Clostridia_vadinBB60_group__unidentified__ASV1326'
p331
(lp332
F2735.666248717655
aF0.0
aF0.0
aF755.8232747761157
aF0.0
aF3029.2463932354094
aF0.0
aF448.1585954182379
aF1641.1961549118698
aF0.0
aF0.0
aF12151.715699905502
aF6624.690400167113
aF5881.3691604415235
aF2648.511909814773
aF3186.191762322751
aF183.78552229548168
aF2296.690677523745
aF5889.345148044091
aF1445.7831325301179
aF931.204865070316
aF0.0
aF0.0
asS'Firmicutes__Clostridia__Oscillospirales__Oscillospiraceae__uncultured__unidentified__ASV26'
p333
(lp334
F364.75549982902066
aF570.1504319985961
aF1247.3776719396742
aF1694.87643434644
aF247.34108335394544
aF0.0
aF5926.699668468138
aF2003.5325442227052
aF532.855894451904
aF709.8394670743689
aF1422.3431557465763
aF667.3711139536181
aF1163.7969621915204
aF975.5825621585464
aF831.9043819289992
aF886.2255232950713
aF735.1420891819248
aF1252.7403695584064
aF504.28643469490635
aF220.88353413654647
aF627.1379703534782
aF0.0
aF442.8207682940329
asS'Firmicutes__Clostridia__Christensenellales__Christensenellaceae__uncultured__uncultured_bacterium__ASV777'
p335
(lp336
F0.0
aF109.64431384588413
aF0.0
aF206.1336203934861
aF82.44702778464836
aF130.7588371180752
aF90.83064626004817
aF0.0
aF42.6284715561524
aF109.20607185759484
aF0.0
aF0.0
aF179.04568649100307
aF306.6116623926864
aF0.0
aF211.00607697501707
aF321.62466401709196
aF292.30608623029485
aF0.0
aF120.48192771084317
aF0.0
aF0.0
aF199.2693457323145
asS'Firmicutes__Clostridia__Oscillospirales__Oscillospiraceae__Oscillibacter__uncultured_bacterium__ASV581'
p337
(lp338
F0.0
aF0.0
aF0.0
aF0.0
aF0.0
aF871.725580787168
aF0.0
aF1423.5625972108758
aF1641.1961549118698
aF0.0
aF0.0
aF806.4067626939552
aF2745.367192862051
aF1839.6699743561144
aF1884.518089675893
aF0.0
aF0.0
aF2839.544837665723
aF738.419422231828
aF0.0
aF2413.5309768149014
aF553.6831969186333
aF0.0
asS'Firmicutes__Clostridia__Lachnospirales__Lachnospiraceae__NA__NA__ASV574'
p339
(lp340
F0.0
aF0.0
aF0.0
aF2588.12212271821
aF0.0
aF0.0
aF0.0
aF1239.026704979837
aF0.0
aF0.0
aF0.0
aF0.0
aF0.0
aF0.0
aF0.0
aF0.0
aF0.0
aF459.338135504749
aF0.0
aF0.0
aF0.0
aF0.0
aF0.0
asS'Bacteroidota__Bacteroidia__Bacteroidales__Muribaculaceae__Muribaculaceae__uncultured_bacterium__ASV672'
p341
(lp342
F0.0
aF1995.5265119950857
aF0.0
aF0.0
aF226.72932640778265
aF3051.0395327550877
aF2225.350833371179
aF2768.0383834655836
aF4966.216936291749
aF3494.5942994430525
aF3494.016882594851
aF0.0
aF19008.683715794807
aF16334.039469283067
aF67.91056179012244
aF0.0
aF1883.8016035286785
aF0.0
aF1026.5830992003478
aF60.240963855421676
aF114.02508551881438
aF5392.392874337994
aF8590.722904904242
asS'Bacteroidota__Bacteroidia__Bacteroidales__Muribaculaceae__Muribaculaceae__uncultured_bacterium__ASV1203'
p343
(lp344
F136.78331243588275
aF0.0
aF141.74746272041733
aF0.0
aF164.89405556929628
aF239.72453471647069
aF227.0766156501207
aF158.1736219123192
aF0.0
aF0.0
aF185.52302031477086
aF250.26416773260704
aF149.20473874250203
aF334.48544988293
aF169.77640447530558
aF84.40243079000682
aF0.0
aF313.1850923896016
aF0.0
aF0.0
aF152.0334473584185
aF0.0
aF0.0
asS'Firmicutes__Clostridia__Oscillospirales__Ruminococcaceae__Incertae_Sedis__uncultured_Clostridiales__ASV250'
p345
(lp346
F0.0
aF0.0
aF198.44644780858408
aF183.22988479420954
aF0.0
aF65.3794185590376
aF0.0
aF210.8981625497586
aF191.828122002686
aF81.90455389319648
aF494.7280541727219
aF500.5283354652131
aF447.6142162275072
aF334.48544988293
aF50.93292134259177
aF0.0
aF206.75871258241642
aF62.63701847792032
aF0.0
aF140.56224899598402
aF361.0794374762452
aF120.36591237361597
aF44.282076829403294
asS'Bacteroidota__Bacteroidia__Bacteroidales__Muribaculaceae__Muribaculaceae__NA__ASV203'
p347
(lp348
F159.58053117519705
aF263.14635323012106
aF141.74746272041733
aF160.32614919493398
aF0.0
aF0.0
aF0.0
aF0.0
aF0.0
aF0.0
aF0.0
aF0.0
aF0.0
aF0.0
aF271.64224716048955
aF0.0
aF0.0
aF0.0
aF90.05114905266194
aF160.64257028112488
aF0.0
aF0.0
aF0.0
asS'Firmicutes__Clostridia__Lachnospirales__Lachnospiraceae__uncultured__NA__ASV1435'
p349
(lp350
F136.78331243588275
aF0.0
aF396.89289561716816
aF343.5560339891435
aF0.0
aF0.0
aF0.0
aF0.0
aF426.284715561524
aF0.0
aF0.0
aF222.45703798453906
aF0.0
aF0.0
aF0.0
aF422.01215395003413
aF367.5710445909624
aF271.42708007098804
aF198.11252791585653
aF60.240963855421676
aF133.02926643861645
aF0.0
aF0.0
asS'Firmicutes__Clostridia__Oscillospirales__Ruminococcaceae__uncultured__uncultured_bacterium__ASV705'
p351
(lp352
F296.3638436110798
aF0.0
aF0.0
aF0.0
aF0.0
aF348.6902323148672
aF454.15323130024035
aF527.245406374397
aF0.0
aF0.0
aF371.0460406295417
aF973.2495411823593
aF925.0693802035153
aF1031.3301371390387
aF797.9491010339389
aF337.60972316002704
aF0.0
aF1252.7403695584064
aF0.0
aF0.0
aF0.0
aF0.0
aF0.0
asS'Firmicutes__Clostridia__Lachnospirales__Lachnospiraceae__Lachnospiraceae_UCG_006__Clostridium_sp___ASV681'
p353
(lp354
F68.39165621794137
aF0.0
aF0.0
aF297.7485627905914
aF0.0
aF196.1382556771123
aF0.0
aF237.26043286847928
aF170.513886224609
aF0.0
aF247.36402708636047
aF194.64990823647204
aF298.4094774850051
aF0.0
aF0.0
aF0.0
aF321.62466401709196
aF104.39503079653386
aF216.12275772638858
aF0.0
aF171.03762827822158
aF0.0
aF221.41038414701646
asS'Firmicutes__Clostridia__Peptostreptococcales_Tissierellales__Anaerovoracaceae__Eubacterium_brachy_group__uncultured_bacterium__ASV586'
p355
(lp356
F0.0
aF0.0
aF0.0
aF0.0
aF0.0
aF0.0
aF0.0
aF79.0868109561596
aF0.0
aF0.0
aF0.0
aF0.0
aF268.5685297365041
aF0.0
aF356.5304493981428
aF232.10668467251907
aF0.0
aF187.91105543376094
aF36.020459621064795
aF0.0
aF95.02090459901181
aF72.21954742416949
aF0.0
asS'Firmicutes__Clostridia__Lachnospirales__Lachnospiraceae__Lachnospiraceae_NK4A136_group__unidentified__ASV1259'
p357
(lp358
F0.0
aF0.0
aF0.0
aF0.0
aF0.0
aF0.0
aF0.0
aF0.0
aF0.0
aF0.0
aF0.0
aF3142.205661531621
aF0.0
aF0.0
aF2903.1765165277325
aF0.0
aF0.0
aF960.4342833281127
aF630.3580433686337
aF702.811244979919
aF0.0
aF0.0
aF265.69246097642036
asS'Firmicutes__Clostridia__Lachnospirales__Lachnospiraceae__NA__NA__ASV577'
p359
(lp360
F843.4970933546107
aF0.0
aF0.0
aF526.785918783353
aF0.0
aF414.0696508739043
aF1521.4133248558073
aF369.0717844620778
aF767.312488010742
aF0.0
aF742.0920812590824
aF0.0
aF537.1370594730092
aF418.10681235366275
aF4566.9852803857375
aF0.0
aF1148.6595143467557
aF2067.0216097713733
aF396.2250558317121
aF0.0
aF1026.2257696693293
aF0.0
aF110.70519207350873
asS'Firmicutes__Clostridia__Oscillospirales__Oscillospiraceae__Colidextribacter__NA__ASV162'
p361
(lp362
F273.5666248717655
aF0.0
aF0.0
aF0.0
aF1669.5523126391267
aF0.0
aF0.0
aF1476.2871378483112
aF703.369780676514
aF5897.127880310147
aF0.0
aF4171.069462210111
aF3461.549938826061
aF3233.3593488683237
aF0.0
aF1666.9480081026304
aF0.0
aF3820.8581271531407
aF0.0
aF0.0
aF760.1672367920945
aF0.0
aF575.6669987822426
asS'Firmicutes__Clostridia__Lachnospirales__Lachnospiraceae__Lachnospiraceae_NK4A136_group__uncultured_bacterium__ASV506'
p363
(lp364
F30388.692579505347
aF6841.805183983156
aF878.834268866587
aF1076.4755731659807
aF1751.9993404237719
aF15996.164407444505
aF5268.1774830827935
aF16054.622624100433
aF31822.1540166677
aF7071.093152779288
aF0.0
aF10149.602358044602
aF32198.382620632012
aF36040.80722488571
aF26570.007300385427
aF24919.817690749507
aF14013.646075030487
aF30921.80812193335
aF15939.053382321119
aF12951.807228915664
aF20429.494488787543
aF1709.1959557053456
aF154.9872689029116
asS'Firmicutes__Clostridia__Oscillospirales__Ruminococcaceae__Ruminococcaceae__NA__ASV1175'
p365
(lp366
F4103.499373076483
aF548.2215692294196
aF1247.3776719396742
aF480.9784475848009
aF474.07040976172806
aF1917.7962777317655
aF4337.163358917294
aF1001.7662721113526
aF3538.16313916065
aF1774.5986676859222
aF0.0
aF13569.879317056902
aF4655.1878487660815
aF4320.437060987845
aF6689.1903363270585
aF2679.777177582711
aF1837.8552229548172
aF4238.438250339276
aF1746.9922916216399
aF702.811244979919
aF4998.0995819080235
aF216.65864227250813
aF0.0
asS'Bacteroidota__Bacteroidia__Bacteroidales__Rikenellaceae__Alistipes__Alistipes_inops__ASV902'
p367
(lp368
F0.0
aF0.0
aF0.0
aF0.0
aF0.0
aF784.5530227084512
aF90.83064626004817
aF316.3472438246384
aF809.940959566895
aF12804.41192530307
aF0.0
aF0.0
aF0.0
aF0.0
aF84.88820223765299
aF0.0
aF0.0
aF0.0
aF936.5319501476836
aF0.0
aF114.02508551881438
aF962.9272989889267
aF18310.63876895828
asS'Firmicutes__Clostridia__Clostridia_vadinBB60_group__Clostridia_vadinBB60_group__Clostridia_vadinBB60_group__unidentified__ASV348'
p369
(lp370
F0.0
aF0.0
aF623.6888359698361
aF503.8821831840774
aF0.0
aF0.0
aF5359.008129342838
aF421.7963250995182
aF0.0
aF846.3470568963637
aF773.0125846448777
aF0.0
aF1462.2064396765204
aF2480.7670866317308
aF865.8596628240606
aF379.8109385550301
aF0.0
aF647.24919093851
aF918.5217203371515
aF0.0
aF247.0543519574308
aF0.0
aF0.0
asS'Proteobacteria__Gammaproteobacteria__Enterobacterales__Enterobacteriaceae__Escherichia_Shigella__NA__ASV600'
p371
(lp372
F319.1610623503931
aF307.004078768475
aF623.6888359698361
aF435.17097638624875
aF1587.1052848544814
aF1198.6226735823586
aF1226.2137245106535
aF0.0
aF1044.39755312573
aF546.0303592879761
aF0.0
aF1362.5493576553001
aF268.5685297365041
aF111.49514996097632
aF5381.912021867199
aF1751.3504388926403
aF0.0
aF229.6690677523745
aF612.3478135581007
aF24799.19678714859
aF1254.2759407069582
aF1564.7568608570066
aF354.25661463522613
asS'Firmicutes__Clostridia__Oscillospirales__Ruminococcaceae__Incertae_Sedis__Clostridium_sp___ASV664'
p373
(lp374
F113.98609369656945
aF263.14635323012106
aF595.3393434257523
aF274.8448271913148
aF267.95284030010725
aF414.0696508739043
aF1044.5524319905533
aF395.43405478079853
aF277.08506511499
aF191.1106257507917
aF1082.2176185028309
aF556.1425949613481
aF596.8189549700102
aF222.99029992195364
aF237.6869662654282
aF1434.8413234301104
aF436.4906154517686
aF521.9751539826693
aF198.11252791585653
aF100.4016064257033
aF589.129608513873
aF0.0
aF0.0
asS'Firmicutes__Clostridia__Lachnospirales__Lachnospiraceae__Lachnospiraceae_UCG_001__uncultured_bacterium__ASV1025'
p375
(lp376
F136.78331243588275
aF3201.613964299814
aF10347.564778590502
aF5794.645106616889
aF1916.893395993072
aF3290.7640674715535
aF136.24596939007262
aF11783.934832467778
aF5605.644009634029
aF4914.273233591782
aF6338.703194087993
aF3614.9268672487606
aF6087.553340694102
aF1365.8155870219675
aF9694.232695539975
aF8988.858879135722
aF9350.088446782614
aF14448.27226224033
aF4052.3017073697865
aF1345.3815261044135
aF8513.87305207146
aF529.6100144439094
aF974.2056902468727
asS'Firmicutes__Clostridia__Lachnospirales__Lachnospiraceae__Eubacterium_xylanophilum_group__uncultured_bacterium__ASV446'
p377
(lp378
F433.14715604696255
aF0.0
aF0.0
aF0.0
aF0.0
aF0.0
aF0.0
aF0.0
aF1172.28296779419
aF0.0
aF0.0
aF556.1425949613481
aF1790.4568649100306
aF808.3398372170818
aF1409.1441571450446
aF379.8109385550301
aF0.0
aF793.4022340536584
aF468.2659750738423
aF180.72289156626474
aF627.1379703534782
aF0.0
aF0.0
asS'Bacteroidota__Bacteroidia__Bacteroidales__Muribaculaceae__Muribaculaceae__uncultured_bacterium__ASV953'
p379
(lp380
F72996.69440328277
aF37717.64396298407
aF31723.082156829365
aF10100.547399280831
aF9769.972792480825
aF16998.64882534979
aF3315.3185884917602
aF47214.826140827245
aF25960.7391776968
aF53101.45244075566
aF0.0
aF252905.84505867303
aF8206.260630837643
aF43650.351209722416
aF2037.3168537036688
aF3798.109385550301
aF15323.117921385721
aF86835.78661655694
aF90195.23089114614
aF44437.7510040161
aF145952.1094640826
aF74073.18247472325
aF219572.6779585961
asS'Firmicutes__Clostridia__Oscillospirales__Ruminococcaceae__uncultured__Clostridium_leptum__ASV114'
p381
(lp382
F775.1054371366698
aF328.93294153765135
aF1445.8241197482532
aF366.45976958842004
aF123.67054167697272
aF1046.0706969445976
aF0.0
aF1818.9966519916663
aF1108.34026045996
aF1064.7592006115574
aF618.4100677159022
aF3142.205661531621
aF0.0
aF0.0
aF3836.9467411419187
aF1455.9419311276204
aF1033.793562912087
aF1210.9823572397888
aF1026.5830992003478
aF502.00803212851446
aF1292.2843025465563
aF0.0
aF309.9745378058232
asS'Firmicutes__Clostridia__Oscillospirales__Oscillospiraceae__Colidextribacter__NA__ASV869'
p383
(lp384
F0.0
aF0.0
aF652.038328513919
aF0.0
aF0.0
aF0.0
aF0.0
aF0.0
aF0.0
aF0.0
aF0.0
aF0.0
aF0.0
aF0.0
aF509.3292134259177
aF0.0
aF0.0
aF1524.1674496293954
aF0.0
aF0.0
aF0.0
aF0.0
aF0.0
asS'Firmicutes__Clostridia__Peptostreptococcales_Tissierellales__Anaerovoracaceae__Anaerovorax__uncultured_bacterium__ASV1109'
p385
(lp386
F113.98609369656945
aF0.0
aF255.1454328967508
aF160.32614919493398
aF41.22351389232418
aF0.0
aF0.0
aF184.5358922310389
aF383.656244005371
aF0.0
aF247.36402708636047
aF250.26416773260704
aF0.0
aF0.0
aF271.64224716048955
aF295.40850776502407
aF137.83914172161127
aF0.0
aF0.0
aF0.0
aF361.0794374762452
aF0.0
aF0.0
asS'Bacteroidota__Bacteroidia__Bacteroidales__Muribaculaceae__Muribaculaceae__uncultured_Bacteroidales__ASV649'
p387
(lp388
F10532.31505756296
aF921.0122363054248
aF0.0
aF1099.379308765263
aF0.0
aF0.0
aF0.0
aF0.0
aF0.0
aF0.0
aF0.0
aF23330.181858628606
aF0.0
aF9337.7188092318
aF0.0
aF0.0
aF2136.5066966849713
aF0.0
aF0.0
aF0.0
aF0.0
aF96.29272989889267
aF0.0
asS'Firmicutes__Clostridia__Oscillospirales__Oscillospiraceae__uncultured__uncultured_bacterium__ASV459'
p389
(lp390
F113.98609369656945
aF0.0
aF0.0
aF0.0
aF0.0
aF217.931395196792
aF0.0
aF158.1736219123192
aF298.399300893066
aF245.71366167958965
aF0.0
aF250.26416773260704
aF566.9780072215092
aF111.49514996097632
aF0.0
aF548.6158001350441
aF0.0
aF375.82211086752187
aF234.13298753692064
aF100.4016064257033
aF418.0919802356524
aF0.0
aF0.0
asS'Bacteroidota__Bacteroidia__Bacteroidales__Muribaculaceae__Muribaculaceae__uncultured_bacterium__ASV815'
p391
(lp392
F0.0
aF219.28862769176826
aF226.79594035266794
aF0.0
aF0.0
aF217.931395196792
aF0.0
aF0.0
aF0.0
aF0.0
aF0.0
aF0.0
aF0.0
aF222.99029992195364
aF0.0
aF0.0
aF0.0
aF0.0
aF0.0
aF0.0
aF0.0
aF192.58545979778535
aF0.0
asS'Firmicutes__Clostridia__Clostridia_vadinBB60_group__Clostridia_vadinBB60_group__Clostridia_vadinBB60_group__NA__ASV214'
p393
(lp394
F0.0
aF855.2256479978945
aF1020.5817315870052
aF2588.12212271821
aF206.1175694616209
aF3726.6268578651375
aF4768.608928652531
aF1397.2003268921533
aF0.0
aF5678.71573659495
aF2566.4017810209916
aF0.0
aF10384.649816478204
aF7275.058534953733
aF7249.45247109557
aF2173.3625928426704
aF4916.262721404123
aF0.0
aF5006.843887328004
aF4236.94779116466
aF0.0
aF0.0
aF841.359459758663
asS'Firmicutes__Clostridia__Lachnospirales__Lachnospiraceae__Eubacterium_ventriosum_group__NA__ASV269'
p395
(lp396
F2279.7218739313794
aF438.5772553835355
aF113.39797017633347
aF3687.501431483473
aF103.05878473080993
aF0.0
aF0.0
aF421.7963250995182
aF0.0
aF0.0
aF0.0
aF917.6352816862243
aF358.09137298200613
aF306.6116623926864
aF0.0
aF0.0
aF0.0
aF0.0
aF0.0
aF0.0
aF0.0
aF0.0
aF0.0
asS'Bacteroidota__Bacteroidia__Bacteroidales__Muribaculaceae__Muribaculaceae__uncultured_bacterium__ASV1383'
p397
(lp398
F0.0
aF767.5101969211878
aF0.0
aF0.0
aF0.0
aF915.3118598265265
aF0.0
aF922.6794611551956
aF1662.51039068994
aF955.5531287539585
aF1144.0586252744154
aF0.0
aF10145.922234490203
aF8863.864421897651
aF0.0
aF0.0
aF0.0
aF0.0
aF0.0
aF0.0
aF0.0
aF1998.074145402023
aF2346.9500719583784
asS'Firmicutes__Clostridia__Oscillospirales__Oscillospiraceae__uncultured__uncultured_bacterium__ASV31'
p399
(lp400
F0.0
aF701.7236086136576
aF1048.9312241310852
aF1076.4755731659807
aF0.0
aF566.6216275116592
aF1975.5665561560427
aF0.0
aF2408.50864292261
aF0.0
aF0.0
aF2669.484455814471
aF0.0
aF2536.5146616122242
aF2801.3106738425486
aF907.3261309925732
aF1883.8016035286785
aF1315.3773880363278
aF1044.5933290108828
aF0.0
aF2679.589509692128
aF240.73182474723194
aF686.3721908557512
asS'Firmicutes__Bacilli__Erysipelotrichales__Erysipelotrichaceae__Dubosiella__uncultured_bacterium__ASV283'
p401
(lp402
F3829.9327482047233
aF5482.215692294196
aF1417.4746272041734
aF2336.1810311261715
aF4781.927611509598
aF7584.012552848358
aF3428.856896316814
aF6168.7712545804525
aF3346.33501715796
aF5050.7808234137765
aF2195.3557403914538
aF0.0
aF2834.890036107551
aF4682.796298361026
aF2988.064718765386
aF1983.4571235651604
aF2343.2654092673824
aF5887.879736924514
aF7636.337439665732
aF9899.598393574299
aF3838.844545800081
aF7462.686567164186
aF7638.658253072067
asS'Firmicutes__Bacilli__Lactobacillales__Lactobacillaceae__Lactobacillus__Lactobacillus_johnsonii__ASV525'
p403
(lp404
F159.58053117519705
aF7565.457655365992
aF255.1454328967508
aF458.07471198552435
aF82.44702778464836
aF130.7588371180752
aF113.53830782505985
aF131.81135159359948
aF85.2569431123047
aF136.5075898219938
aF92.76151015738533
aF111.22851899227003
aF0.0
aF2006.9126992975837
aF356.5304493981428
aF105.50303848750802
aF9763.605871947448
aF104.39503079653386
aF414.2352856422452
aF40.16064257028112
aF152.0334473584185
aF649.9759268175255
aF199.2693457323145
asS'Bacteroidota__Bacteroidia__Bacteroidales__Muribaculaceae__Muribaculaceae__uncultured_bacterium__ASV1149'
p405
(lp406
F0.0
aF0.0
aF0.0
aF0.0
aF0.0
aF3160.0052303534817
aF386.03024660520504
aF2267.155247409912
aF1300.16838246265
aF7480.6159222452725
aF0.0
aF0.0
aF0.0
aF0.0
aF0.0
aF0.0
aF0.0
aF0.0
aF0.0
aF0.0
aF0.0
aF0.0
aF0.0
asS'Firmicutes__Clostridia__Lachnospirales__Lachnospiraceae__NA__NA__ASV646'
p407
(lp408
F547.133249743531
aF0.0
aF0.0
aF0.0
aF0.0
aF0.0
aF1725.7822789409163
aF0.0
aF0.0
aF0.0
aF0.0
aF1140.0923196707604
aF0.0
aF0.0
aF1069.5913481944315
aF0.0
aF0.0
aF0.0
aF396.2250558317121
aF240.96385542168633
aF0.0
aF0.0
aF0.0
asS'Firmicutes__Clostridia__Lachnospirales__Lachnospiraceae__GCA_900066575__uncultured_bacterium__ASV1369'
p409
(lp410
F0.0
aF0.0
aF0.0
aF847.4382171732209
aF0.0
aF261.5176742361504
aF0.0
aF0.0
aF0.0
aF0.0
aF1082.2176185028309
aF139.03564874033702
aF358.09137298200613
aF0.0
aF186.75404492283621
aF0.0
aF0.0
aF0.0
aF0.0
aF0.0
aF0.0
aF0.0
aF0.0
asS'Firmicutes__Clostridia__Lachnospirales__Lachnospiraceae__Roseburia__uncultured_bacterium__ASV320'
p411
(lp412
F205.17496865382464
aF153.50203938423797
aF396.89289561716816
aF916.1494239710496
aF61.83527083848626
aF0.0
aF0.0
aF790.8681095615959
aF916.512138457276
aF409.5227694659824
aF0.0
aF1334.7422279072402
aF2715.526245113541
aF780.4660497268374
aF967.7255055092445
aF928.4267386900742
aF0.0
aF1837.3525420190022
aF720.409192421295
aF341.3654618473896
aF912.200684150513
aF0.0
aF0.0
asS'Firmicutes__Clostridia__Oscillospirales__Ruminococcaceae__uncultured__uncultured_bacterium__ASV904'
p413
(lp414
F410.34993730764825
aF0.0
aF255.1454328967508
aF206.1336203934861
aF0.0
aF305.1039532755088
aF0.0
aF0.0
aF277.08506511499
aF136.5075898219938
aF154.60251692897555
aF500.5283354652131
aF268.5685297365041
aF250.86408741219722
aF0.0
aF464.2133693450371
aF367.5710445909624
aF375.82211086752187
aF360.204596210648
aF0.0
aF475.1045229950586
aF0.0
aF287.8334993911213
asS'Proteobacteria__Gammaproteobacteria__Enterobacterales__Morganellaceae__Proteus__NA__ASV1070'
p415
(lp416
F0.0
aF0.0
aF0.0
aF160.32614919493398
aF1009.9760903619456
aF130.7588371180752
aF68.1229846950361
aF0.0
aF426.284715561524
aF163.80910778639276
aF0.0
aF472.7212057171461
aF417.77326847900713
aF501.7281748243955
aF831.9043819289992
aF211.00607697501707
aF91.89276114774066
aF0.0
aF198.11252791585653
aF2911.6465863453845
aF228.05017103762876
aF481.4636494944639
aF0.0
asS'Bacteroidota__Bacteroidia__Bacteroidales__Bacteroidaceae__Bacteroides__Bacteroides_vulgatus__ASV287'
p417
(lp418
F0.0
aF0.0
aF0.0
aF0.0
aF0.0
aF0.0
aF0.0
aF0.0
aF0.0
aF0.0
aF0.0
aF0.0
aF238.7275819880041
aF0.0
aF696.083258348755
aF0.0
aF0.0
aF0.0
aF180.1022981053235
aF0.0
aF190.04180919802363
aF0.0
aF0.0
asS'Bacteroidota__Bacteroidia__Bacteroidales__Rikenellaceae__Alistipes__uncultured_bacterium__ASV1333'
p419
(lp420
F0.0
aF0.0
aF0.0
aF0.0
aF226.72932640778265
aF196.1382556771123
aF0.0
aF0.0
aF319.713536671143
aF18756.142841542016
aF0.0
aF0.0
aF0.0
aF0.0
aF118.84348313271461
aF0.0
aF0.0
aF0.0
aF0.0
aF0.0
aF0.0
aF0.0
aF0.0
asS'Firmicutes__Bacilli__Erysipelotrichales__Erysipelotrichaceae__Dubosiella__uncultured_bacterium__ASV1387'
p421
(lp422
F9187.279151943467
aF11731.94158150957
aF3090.0946873050957
aF5084.62930303932
aF11480.74861901228
aF17826.78812709756
aF6812.29846950361
aF15000.131811351626
aF10678.432124816201
aF13323.140766626606
aF6338.703194087993
aF1696.2349146321105
aF6565.008504670112
aF8111.272159661061
aF6230.794044243731
aF5021.944632005401
aF5306.80695628202
aF11232.905313707011
aF15722.930624594817
aF22570.28112449798
aF8817.939946788294
aF16514.203177660118
aF14856.636776264844
asS'Firmicutes__Clostridia__Lachnospirales__Lachnospiraceae__NA__NA__ASV1192'
p423
(lp424
F159.58053117519705
aF482.43498092188935
aF198.44644780858408
aF343.5560339891435
aF453.4586528155653
aF501.2422089526212
aF204.3689540851079
aF421.7963250995182
aF319.713536671143
aF300.3166976083865
aF309.2050338579511
aF166.84277848840404
aF417.77326847900713
aF250.86408741219722
aF526.3068538734483
aF801.8230925050641
aF275.6782834432216
aF668.1281970978168
aF414.2352856422452
aF240.96385542168633
aF304.066894716838
aF457.39046701974013
aF177.12830731761355
asS'Firmicutes__Bacilli__Acholeplasmatales__Acholeplasmataceae__Anaeroplasma__uncultured_bacterium__ASV374'
p425
(lp426
F0.0
aF0.0
aF0.0
aF3572.9827534870906
aF0.0
aF7213.529181013811
aF1521.4133248558073
aF3242.559249202542
aF10230.8331734766
aF764.4425030031668
aF4885.439534955625
aF0.0
aF42284.622959625216
aF48416.76887055418
aF28064.03965976809
aF10086.090479405802
aF0.0
aF4572.502348888186
aF6591.744110654848
aF1465.8634538152567
aF8057.772709996204
aF0.0
aF0.0
asS'Firmicutes__Clostridia__Lachnospirales__Lachnospiraceae__NA__NA__ASV1190'
p427
(lp428
F113.98609369656945
aF723.6524713828339
aF340.1939105290014
aF229.03735599276266
aF1236.7054167697272
aF239.72453471647069
aF1430.5826785957622
aF0.0
aF170.513886224609
aF300.3166976083865
aF556.5690609443116
aF0.0
aF0.0
aF0.0
aF186.75404492283621
aF232.10668467251907
aF206.75871258241642
aF167.0320492744542
aF0.0
aF240.96385542168633
aF133.02926643861645
aF0.0
aF464.96180670873485
asS'Bacteroidota__Bacteroidia__Bacteroidales__Muribaculaceae__Muribaculaceae__uncultured_Bacteroidales__ASV1409'
p429
(lp430
F0.0
aF0.0
aF0.0
aF0.0
aF0.0
aF12596.434642374568
aF3360.733911621777
aF8778.636016133718
aF13854.2532557495
aF24625.969203887722
aF0.0
aF0.0
aF0.0
aF0.0
aF0.0
aF0.0
aF0.0
aF0.0
aF3890.2096390749907
aF0.0
aF627.1379703534782
aF53129.513721714015
aF11601.904129303646
asS'Firmicutes__Clostridia__Lachnospirales__Lachnospiraceae__uncultured__uncultured_bacterium__ASV502'
p431
(lp432
F0.0
aF0.0
aF0.0
aF0.0
aF0.0
aF0.0
aF0.0
aF1344.4757862547176
aF0.0
aF0.0
aF0.0
aF0.0
aF0.0
aF0.0
aF984.7031459567752
aF400.91154625253205
aF298.6514737301573
aF0.0
aF0.0
aF0.0
aF0.0
aF0.0
aF0.0
asS'Firmicutes__Clostridia__Lachnospirales__Lachnospiraceae__GCA_900066575__uncultured_bacterium__ASV794'
p433
(lp434
F0.0
aF0.0
aF0.0
aF0.0
aF0.0
aF0.0
aF0.0
aF0.0
aF447.5989513396
aF0.0
aF0.0
aF166.84277848840404
aF0.0
aF0.0
aF203.73168537036688
aF316.5091154625251
aF0.0
aF0.0
aF288.1636769685178
aF0.0
aF247.0543519574308
aF0.0
aF0.0
asS'Firmicutes__Clostridia__Lachnospirales__Lachnospiraceae__NA__NA__ASV1215'
p435
(lp436
F410.34993730764825
aF0.0
aF0.0
aF0.0
aF0.0
aF523.0353484723008
aF0.0
aF0.0
aF660.741309120362
aF0.0
aF0.0
aF0.0
aF477.4551639760082
aF668.970899765861
aF1052.613707746901
aF443.1127616475351
aF0.0
aF730.7652155757381
aF486.27620488437435
aF0.0
aF342.0752565564421
aF0.0
aF0.0
asS'Bacteroidota__Bacteroidia__Bacteroidales__Muribaculaceae__Muribaculaceae__unidentified__ASV1308'
p437
(lp438
F12105.323150575668
aF3070.0407876847494
aF21063.67296025397
aF2198.7586175305164
aF55321.955643499
aF31185.98265266088
aF65057.45038375952
aF9859.48909920123
aF15452.8209391052
aF55176.36780605001
aF185.52302031477086
aF361.4926867248761
aF136492.49500164107
aF82729.40127104471
aF186.75404492283621
aF232.10668467251907
aF38158.46906659932
aF167.0320492744542
aF7636.337439665732
aF0.0
aF247.0543519574308
aF70365.91237361584
aF17336.433078711423
asS'Bacteroidota__Bacteroidia__Bacteroidales__Muribaculaceae__Muribaculaceae__uncultured_Bacteroidales__ASV1403'
p439
(lp440
F146631.71093126643
aF272137.18696548376
aF324658.388614844
aF463938.06829893973
aF313030.7527413638
aF239746.32785599097
aF268722.4669603527
aF216566.05066828383
aF232602.255046145
aF90531.83356994645
aF364985.62196592515
aF917.6352816862243
aF160335.41225269303
aF99732.41164009368
aF165684.7931274508
aF380085.2464550981
aF359576.3743711088
aF102724.71030378978
aF196545.63792234022
aF202510.04016064288
aF111022.42493348574
aF83100.6259027444
aF51167.93977637552
asS'Firmicutes__Clostridia__Oscillospirales__Oscillospiraceae__Oscillibacter__uncultured_bacterium__ASV1272'
p441
(lp442
F0.0
aF0.0
aF198.44644780858408
aF229.03735599276266
aF0.0
aF0.0
aF0.0
aF395.43405478079853
aF0.0
aF273.0151796439886
aF0.0
aF0.0
aF507.29611172450814
aF362.35923737317455
aF0.0
aF0.0
aF0.0
aF0.0
aF0.0
aF0.0
aF0.0
aF0.0
aF0.0
asS'Bacteroidota__Bacteroidia__Bacteroidales__Muribaculaceae__Muribaculaceae__uncultured_Bacteroidales__ASV1374'
p443
(lp444
F5813.290778525019
aF1535.0203938423797
aF9241.934569371208
aF1694.87643434644
aF16221.452716629552
aF4053.523950660328
aF1317.0443707706984
aF8541.375583265235
aF4454.67527761792
aF16517.41836846128
aF0.0
aF0.0
aF0.0
aF0.0
aF0.0
aF0.0
aF0.0
aF0.0
aF11832.720985519807
aF0.0
aF0.0
aF14347.616754935038
aF32569.467508026097
asS'Firmicutes__Bacilli__Erysipelotrichales__Erysipelatoclostridiaceae__Erysipelatoclostridium__unidentified__ASV419'
p445
(lp446
F227.97218739313792
aF394.71952984518265
aF0.0
aF1190.9942511623635
aF350.3998680847554
aF87.1725580787168
aF0.0
aF131.81135159359948
aF0.0
aF273.0151796439886
aF371.0460406295417
aF222.45703798453906
aF59.68189549700102
aF250.86408741219722
aF780.9714605864083
aF337.60972316002704
aF229.73190286935116
aF0.0
aF0.0
aF321.2851405622488
aF475.1045229950586
aF168.51227732306256
aF132.8462304882097
asS'Firmicutes__Clostridia__Lachnospirales__Lachnospiraceae__NA__NA__ASV1354'
p447
(lp448
F0.0
aF285.0752159992985
aF198.44644780858408
aF0.0
aF412.2351389232418
aF0.0
aF431.44556973522856
aF0.0
aF639.427073342285
aF382.2212515015834
aF216.44352370056615
aF750.7925031978202
aF0.0
aF0.0
aF0.0
aF0.0
aF528.3833765995084
aF542.8541601419761
aF450.2557452633093
aF0.0
aF912.200684150513
aF240.73182474723194
aF509.24388353813777
asS'Firmicutes__Clostridia__Oscillospirales__Ruminococcaceae__Ruminococcus__unidentified__ASV766'
p449
(lp450
F11261.826057221006
aF4100.697337836058
aF141.74746272041733
aF5565.607750624124
aF412.2351389232418
aF108.9656975983955
aF0.0
aF2240.7929770911896
aF0.0
aF0.0
aF1391.4226523607838
aF1279.1279684111003
aF59.68189549700102
aF0.0
aF0.0
aF2236.664415935181
aF1654.0697006593314
aF41.75801231861355
aF0.0
aF4598.393574297189
aF0.0
aF0.0
aF531.3849219528397
asS'Actinobacteriota__Coriobacteriia__Coriobacteriales__Eggerthellaceae__Enterorhabdus__uncultured_bacterium__ASV330'
p451
(lp452
F159.58053117519705
aF350.8618043068288
aF0.0
aF0.0
aF226.72932640778265
aF152.5519766377539
aF0.0
aF210.8981625497586
aF85.2569431123047
aF163.80910778639276
aF278.2845304721558
aF139.03564874033702
aF208.88663423950305
aF167.2427249414655
aF0.0
aF147.70425388251203
aF68.91957086080545
aF0.0
aF198.11252791585653
aF0.0
aF171.03762827822158
aF96.29272989889267
aF177.12830731761355
asS'Firmicutes__Clostridia__Oscillospirales__Ruminococcaceae__uncultured__uncultured_bacterium__ASV1314'
p453
(lp454
F478.74159352559013
aF614.00815753695
aF0.0
aF0.0
aF0.0
aF697.3804646297344
aF999.1371088605299
aF474.5208657369576
aF788.6267237888189
aF1228.5683083979432
aF0.0
aF2530.4488070741304
aF1283.1607531855204
aF752.5922622365928
aF2139.182696388853
aF0.0
aF758.1152794688605
aF668.1281970978168
aF306.1739067790508
aF0.0
aF1596.3511972634012
aF0.0
aF265.69246097642036
asS'Firmicutes__Bacilli__Erysipelotrichales__Erysipelotrichaceae__uncultured__unidentified__ASV853'
p455
(lp456
F0.0
aF0.0
aF0.0
aF0.0
aF0.0
aF283.3108137558291
aF0.0
aF0.0
aF234.456593558838
aF0.0
aF0.0
aF0.0
aF686.3417982155112
aF668.970899765861
aF0.0
aF759.6218771100612
aF0.0
aF0.0
aF162.09206829479146
aF0.0
aF0.0
aF312.9513721714013
aF0.0
asS'Firmicutes__Clostridia__Lachnospirales__Lachnospiraceae__Lachnospiraceae_NK4A136_group__uncultured_bacterium__ASV752'
p457
(lp458
F3146.0161860253043
aF679.7947458444802
aF1899.4160004535913
aF664.2083323790104
aF164.89405556929628
aF2615.176742361504
aF613.1068622553247
aF0.0
aF5818.7863674148
aF1201.2667904335522
aF1082.2176185028309
aF2919.7486235470806
aF10772.582137208705
aF7860.408072248856
aF12936.9620210183
aF2616.4753544902105
aF0.0
aF13425.200960434306
aF2971.687918737843
aF1445.7831325301179
aF6138.350437096167
aF144.43909484833875
aF0.0
asS'Firmicutes__Clostridia__Clostridia_UCG_014__Clostridia_UCG_014__Clostridia_UCG_014__NA__ASV206'
p459
(lp460
F0.0
aF1995.5265119950857
aF0.0
aF10604.429582464887
aF1401.5994723390177
aF0.0
aF90.83064626004817
aF0.0
aF1278.85414668457
aF5678.71573659495
aF2071.673726848275
aF0.0
aF0.0
aF0.0
aF0.0
aF147.70425388251203
aF4158.147441935264
aF0.0
aF1260.7160867372634
aF0.0
aF1159.255036107943
aF288.87818969667853
aF4693.900143916747
asS'Firmicutes__Clostridia__Lachnospirales__Lachnospiraceae__Roseburia__uncultured_bacterium__ASV1193'
p461
(lp462
F0.0
aF0.0
aF0.0
aF0.0
aF0.0
aF283.3108137558291
aF0.0
aF210.8981625497586
aF0.0
aF0.0
aF0.0
aF0.0
aF0.0
aF0.0
aF0.0
aF168.80486158001403
aF0.0
aF1043.9503079653387
aF504.28643469490635
aF361.44578313253044
aF0.0
aF433.31728454501734
aF0.0
asS'Firmicutes__Clostridia__Oscillospirales__Oscillospiraceae__Oscillibacter__unidentified__ASV1438'
p463
(lp464
F683.9165621794148
aF438.5772553835355
aF1162.3291943074246
aF893.2456883717731
aF0.0
aF2092.141393889205
aF0.0
aF4613.397305775973
aF1023.08331734766
aF627.934913181173
aF773.0125846448777
aF4504.755019186921
aF0.0
aF891.9611996878136
aF3972.7678647221633
aF2215.563808237681
aF804.061660042731
aF1837.3525420190022
aF1656.9411425689746
aF421.68674698795206
aF1444.3177499049789
aF529.6100144439094
aF0.0
asS'Bacteroidota__Bacteroidia__Bacteroidales__Rikenellaceae__Alistipes__uncultured_bacterium__ASV1418'
p465
(lp466
F4992.5909039097205
aF0.0
aF0.0
aF1053.571837566708
aF0.0
aF0.0
aF0.0
aF3137.1101679276617
aF3197.13536671143
aF1173.9652724691512
aF0.0
aF7146.432345253322
aF0.0
aF1337.9417995317258
aF0.0
aF0.0
aF4020.3083002136495
aF5407.662595260457
aF3800.1584900223356
aF4638.5542168674665
aF5093.1204865070285
aF0.0
aF243.5514225617184
asS'Firmicutes__Clostridia__Lachnospirales__Lachnospiraceae__NA__NA__ASV1393'
p467
(lp468
F0.0
aF328.93294153765135
aF2069.512955718091
aF435.17097638624875
aF0.0
aF174.3451161574336
aF0.0
aF0.0
aF0.0
aF218.41214371519067
aF154.60251692897555
aF0.0
aF0.0
aF0.0
aF0.0
aF0.0
aF229.73190286935116
aF0.0
aF0.0
aF0.0
aF228.05017103762876
aF0.0
aF0.0
asS'Bacteroidota__Bacteroidia__Bacteroidales__Muribaculaceae__Muribaculaceae__NA__ASV557'
p469
(lp470
F0.0
aF32038.068505767307
aF0.0
aF0.0
aF7214.114931156725
aF31752.604280172585
aF20118.98814660071
aF28128.54243007415
aF32418.9526184539
aF39532.59801244953
aF13728.703503292985
aF0.0
aF0.0
aF0.0
aF220.70932581789754
aF0.0
aF0.0
aF123791.62751853043
aF38523.881564728734
aF116506.02409638507
aF116077.53705815256
aF75613.86615310547
aF75257.38957157097
asS'Firmicutes__Clostridia__Oscillospirales__Oscillospiraceae__Colidextribacter__uncultured_bacterium__ASV603'
p471
(lp472
F0.0
aF0.0
aF595.3393434257523
aF183.22988479420954
aF0.0
aF0.0
aF749.3528316453974
aF0.0
aF0.0
aF0.0
aF463.80755078692664
aF0.0
aF0.0
aF0.0
aF0.0
aF0.0
aF321.62466401709196
aF0.0
aF0.0
aF0.0
aF0.0
aF0.0
aF354.25661463522613
asS'Firmicutes__Bacilli__Erysipelotrichales__Erysipelotrichaceae__Turicibacter__NA__ASV1241'
p473
(lp474
F866.2943120939251
aF1008.7276873821315
aF170.09695526450022
aF1122.2830443645357
aF247.34108335394544
aF1438.3472082988242
aF2248.058494936188
aF2504.4156802783864
aF2195.36628514185
aF2948.5639401550734
aF278.2845304721558
aF0.0
aF1163.7969621915204
aF1951.1651243170907
aF1477.0547189351673
aF506.41458474004105
aF781.0884697557952
aF876.9182586908855
aF1674.9513723795096
aF1686.7469879518044
aF1311.2884834663655
aF1661.049590755896
aF1151.3339975644851
asS'Firmicutes__Clostridia__Clostridia_vadinBB60_group__Clostridia_vadinBB60_group__Clostridia_vadinBB60_group__uncultured_bacterium__ASV1315'
p475
(lp476
F0.0
aF679.7947458444802
aF0.0
aF0.0
aF0.0
aF348.6902323148672
aF499.56855443026495
aF448.1585954182379
aF0.0
aF191.1106257507917
aF494.7280541727219
aF0.0
aF0.0
aF0.0
aF713.0608987962856
aF147.70425388251203
aF413.51742516483284
aF438.45912934544225
aF0.0
aF281.12449799196804
aF361.0794374762452
aF0.0
aF0.0
asS'Firmicutes__Clostridia__Lachnospirales__Lachnospiraceae__NA__NA__ASV221'
p477
(lp478
F0.0
aF0.0
aF0.0
aF0.0
aF0.0
aF828.1393017478097
aF1044.5524319905533
aF0.0
aF660.741309120362
aF0.0
aF1020.376611731236
aF0.0
aF0.0
aF0.0
aF1069.5913481944315
aF759.6218771100612
aF482.436996025638
aF521.9751539826693
aF0.0
aF0.0
aF494.1087039148616
aF0.0
aF0.0
asS'Bacteroidota__Bacteroidia__Bacteroidales__Muribaculaceae__Muribaculaceae__uncultured_Bacteroidales__ASV635'
p479
(lp480
F22956.799270489053
aF2192.8862769176826
aF708.7373136020867
aF2381.988502324727
aF1793.2228543160995
aF0.0
aF0.0
aF0.0
aF0.0
aF0.0
aF0.0
aF59312.60775262781
aF1790.4568649100306
aF21992.41832980266
aF186.75404492283621
aF464.2133693450371
aF4548.691676813161
aF0.0
aF90.05114905266194
aF0.0
aF0.0
aF0.0
aF0.0
asS'Bacteroidota__Bacteroidia__Bacteroidales__Bacteroidaceae__Bacteroides__Bacteroides_acidifaciens__ASV14'
p481
(lp482
F273.5666248717655
aF0.0
aF198.44644780858408
aF0.0
aF412.2351389232418
aF217.931395196792
aF181.66129252009614
aF210.8981625497586
aF234.456593558838
aF0.0
aF0.0
aF389.2998164729441
aF208.88663423950305
aF306.6116623926864
aF0.0
aF443.1127616475351
aF275.6782834432216
aF271.42708007098804
aF0.0
aF281.12449799196804
aF0.0
aF505.5368319691867
aF0.0
asS'Bacteroidota__Bacteroidia__Bacteroidales__Bacteroidaceae__Bacteroides__Bacteroides_plebeius__ASV1063'
p483
(lp484
F91.18887495725527
aF0.0
aF0.0
aF0.0
aF61.83527083848626
aF108.9656975983955
aF45.415323130024035
aF105.4490812748798
aF0.0
aF0.0
aF0.0
aF111.22851899227003
aF119.36379099400204
aF0.0
aF152.79876402777592
aF126.60364618501002
aF0.0
aF167.0320492744542
aF0.0
aF80.32128514056224
aF0.0
aF0.0
aF0.0
asS'Firmicutes__Clostridia__Lachnospirales__Lachnospiraceae__Lachnospiraceae_NK4A136_group__uncultured_bacterium__ASV1358'
p485
(lp486
F273.5666248717655
aF263.14635323012106
aF2296.308896070759
aF824.5344815739444
aF267.95284030010725
aF1133.2432550233225
aF1748.489940505925
aF1133.577623704956
aF0.0
aF955.5531287539585
aF2813.76580810735
aF1112.2851899227003
aF835.5465369580143
aF836.2136247073255
aF1850.5628087808316
aF506.41458474004105
aF482.436996025638
aF1106.5873264432598
aF882.5012607160863
aF0.0
aF342.0752565564421
aF0.0
aF0.0
asS'Firmicutes__Clostridia__Lachnospirales__Lachnospiraceae__Lachnospiraceae_NK4A136_group__uncultured_Clostridiales__ASV838'
p487
(lp488
F0.0
aF219.28862769176826
aF0.0
aF91.61494239710495
aF288.56459724626905
aF435.862790393584
aF227.0766156501207
aF8699.54920517755
aF191.828122002686
aF0.0
aF247.36402708636047
aF0.0
aF0.0
aF306.6116623926864
aF203.73168537036688
aF0.0
aF0.0
aF0.0
aF90.05114905266194
aF160.64257028112488
aF0.0
aF240.73182474723194
aF664.2311524410494
asS'Firmicutes__Bacilli__Erysipelotrichales__Erysipelatoclostridiaceae__Erysipelatoclostridium__NA__ASV771'
p489
(lp490
F797.9026558759832
aF1162.2297267663735
aF1219.0281793955844
aF2313.2772955268993
aF1133.6466320389184
aF1612.692324456264
aF454.15323130024035
aF869.9549205177561
aF511.54165867382795
aF737.1409850387679
aF1607.86617606135
aF500.5283354652131
aF1014.5922234490204
aF222.99029992195364
aF2342.9143817592208
aF6161.377447670491
aF3009.4879275885087
aF1085.7083202839563
aF1152.6547078740732
aF3032.128514056228
aF2793.6145952109423
aF1275.878671160329
aF1195.616074393893
asS'Bacteroidota__Bacteroidia__Bacteroidales__Muribaculaceae__Muribaculaceae__NA__ASV1440'
p491
(lp492
F0.0
aF0.0
aF0.0
aF0.0
aF185.50581251545907
aF0.0
aF181.66129252009614
aF131.81135159359948
aF0.0
aF0.0
aF0.0
aF194.64990823647204
aF119.36379099400204
aF195.11651243170908
aF0.0
aF168.80486158001403
aF0.0
aF208.79006159306772
aF0.0
aF0.0
aF342.0752565564421
aF0.0
aF0.0
asS'Bacteroidota__Bacteroidia__Bacteroidales__Muribaculaceae__Muribaculum__NA__ASV32'
p493
(lp494
F50062.69235153315
aF10153.063462128817
aF1304.0766570278338
aF3092.0043059022964
aF2287.9050210239902
aF0.0
aF0.0
aF0.0
aF0.0
aF0.0
aF0.0
aF95350.64790612312
aF70603.68237295223
aF73670.42033671535
aF271.64224716048955
aF907.3261309925732
aF7787.911507271017
aF0.0
aF1602.9104531373794
aF120.48192771084317
aF228.05017103762876
aF23182.474723158433
aF553.5259603675416
asS'Firmicutes__Clostridia__Oscillospirales__Oscillospiraceae__NA__NA__ASV659'
p495
(lp496
F2872.449561153545
aF0.0
aF0.0
aF4305.902292663932
aF3009.316514139663
aF414.0696508739043
aF0.0
aF5061.555901194219
aF0.0
aF0.0
aF0.0
aF0.0
aF0.0
aF0.0
aF0.0
aF0.0
aF0.0
aF0.0
aF1062.603558821408
aF3433.734939759035
aF0.0
aF1853.6350505536843
aF0.0
asS'Firmicutes__Clostridia__Lachnospirales__Lachnospiraceae__NA__NA__ASV454'
p497
(lp498
F24165.05186367259
aF5043.638436910657
aF0.0
aF732.9195391768392
aF1298.5406876082084
aF11179.880573595454
aF3951.133112312096
aF14130.176890833807
aF21058.4649487393
aF5214.589931200173
aF0.0
aF8731.438740893173
aF23067.052609590908
aF28403.389452558822
aF0.0
aF0.0
aF11831.192997771592
aF22987.785781396815
aF11598.587997982833
aF8172.6907630522055
aF15754.465982516114
aF914.7809340394803
aF0.0
asS'Firmicutes__Clostridia__Lachnospirales__Lachnospiraceae__NA__NA__ASV515'
p499
(lp500
F0.0
aF0.0
aF0.0
aF0.0
aF0.0
aF0.0
aF0.0
aF0.0
aF0.0
aF0.0
aF0.0
aF0.0
aF119.36379099400204
aF167.2427249414655
aF0.0
aF0.0
aF0.0
aF0.0
aF0.0
aF0.0
aF0.0
aF0.0
aF0.0
asS'Firmicutes__Clostridia__Lachnospirales__Lachnospiraceae__uncultured__uncultured_bacterium__ASV141'
p501
(lp502
F0.0
aF219.28862769176826
aF0.0
aF0.0
aF0.0
aF283.3108137558291
aF0.0
aF1344.4757862547176
aF1300.16838246265
aF0.0
aF0.0
aF500.5283354652131
aF0.0
aF0.0
aF1477.0547189351673
aF907.3261309925732
aF0.0
aF668.1281970978168
aF270.15344715798574
aF0.0
aF0.0
aF0.0
aF0.0
asS'Bacteroidota__Bacteroidia__Bacteroidales__Rikenellaceae__Alistipes__uncultured_bacterium__ASV249'
p503
(lp504
F1641.399749230597
aF51160.036840489396
aF93496.6264103872
aF7672.75142575754
aF26094.484293841153
aF5688.009414636271
aF86561.60588582589
aF66512.00801413023
aF62749.1101306563
aF34181.50049142736
aF100831.76154107817
aF0.0
aF507.29611172450814
aF473.8543873341509
aF645.150337006163
aF145509.79068197205
aF0.0
aF110533.45860737041
aF146531.229738491
aF126445.7831325303
aF139927.78411250445
aF34352.43139142998
aF23845.898372633717
asS'Bacteroidota__Bacteroidia__Bacteroidales__Muribaculaceae__Muribaculaceae__uncultured_Bacteroidales__ASV520'
p505
(lp506
F3123.218967285991
aF4034.910749528526
aF9893.972897885125
aF2244.5660887290715
aF3875.010305878472
aF2462.624765723753
aF0.0
aF5641.525848206048
aF1428.0537971310998
aF15370.75461395658
aF0.0
aF0.0
aF0.0
aF0.0
aF0.0
aF0.0
aF0.0
aF0.0
aF1855.05367048484
aF0.0
aF0.0
aF17934.520943668795
aF2258.3859182995725
asS'Proteobacteria__Gammaproteobacteria__Burkholderiales__Comamonadaceae__Aquabacterium__NA__ASV4'
p507
(lp508
F0.0
aF0.0
aF0.0
aF0.0
aF0.0
aF0.0
aF0.0
aF0.0
aF0.0
aF109.20607185759484
aF0.0
aF111.22851899227003
aF149.20473874250203
aF111.49514996097632
aF0.0
aF42.20121539500341
aF0.0
aF0.0
aF0.0
aF0.0
aF0.0
aF0.0
aF66.42311524410493
asS'Firmicutes__Clostridia__Clostridia_vadinBB60_group__Clostridia_vadinBB60_group__Clostridia_vadinBB60_group__uncultured_bacterium__ASV998'
p509
(lp510
F0.0
aF2236.744002456027
aF0.0
aF0.0
aF0.0
aF0.0
aF0.0
aF0.0
aF0.0
aF0.0
aF0.0
aF0.0
aF0.0
aF0.0
aF0.0
aF0.0
aF3147.327069310113
aF0.0
aF0.0
aF0.0
aF0.0
aF0.0
aF177.12830731761355
asS'Firmicutes__Clostridia__Oscillospirales__UCG_010__UCG_010__uncultured_organism__ASV850'
p511
(lp512
F0.0
aF548.2215692294196
aF0.0
aF618.4008611804584
aF41.22351389232418
aF457.6559299132627
aF0.0
aF289.9849735059187
aF0.0
aF0.0
aF0.0
aF0.0
aF328.25042523350515
aF641.0971122756164
aF84.88820223765299
aF168.80486158001403
aF160.81233200854598
aF0.0
aF198.11252791585653
aF0.0
aF0.0
aF0.0
aF0.0
asS'Firmicutes__Clostridia__Oscillospirales__Oscillospiraceae__NA__NA__ASV154'
p513
(lp514
F0.0
aF0.0
aF311.8444179849175
aF0.0
aF0.0
aF0.0
aF613.1068622553247
aF0.0
aF0.0
aF1037.4576826471564
aF0.0
aF0.0
aF328.25042523350515
aF334.48544988293
aF0.0
aF0.0
aF1033.793562912087
aF0.0
aF126.07160867372635
aF0.0
aF0.0
aF0.0
aF0.0
asS'Firmicutes__Clostridia__Oscillospirales__Oscillospiraceae__Oscillibacter__uncultured_bacterium__ASV480'
p515
(lp516
F0.0
aF1425.3760799964925
aF4365.82185178885
aF1305.5129291587464
aF721.4114931156726
aF915.3118598265265
aF0.0
aF4323.412332270063
aF2216.68052091992
aF0.0
aF834.8535914164684
aF0.0
aF1462.2064396765204
aF1839.6699743561144
aF339.5528089506122
aF0.0
aF1745.9624618070743
aF375.82211086752187
aF0.0
aF0.0
aF1482.3261117445868
aF0.0
aF309.9745378058232
asS'Bacteroidota__Bacteroidia__Bacteroidales__Muribaculaceae__Muribaculaceae__uncultured_Bacteroidales__ASV1452'
p517
(lp518
F0.0
aF0.0
aF0.0
aF0.0
aF0.0
aF87.1725580787168
aF454.15323130024035
aF79.0868109561596
aF0.0
aF409.5227694659824
aF0.0
aF0.0
aF0.0
aF0.0
aF0.0
aF0.0
aF0.0
aF0.0
aF54.030689431597146
aF0.0
aF0.0
aF192.58545979778535
aF22.141038414701647
asS'Firmicutes__Clostridia__Lachnospirales__Lachnospiraceae__Lachnospiraceae_NK4A136_group__unidentified__ASV1279'
p519
(lp520
F0.0
aF0.0
aF368.5434030730853
aF0.0
aF0.0
aF0.0
aF476.8608928652531
aF0.0
aF0.0
aF518.7288413235772
aF0.0
aF1529.3921361437106
aF0.0
aF501.7281748243955
aF1833.585168333301
aF0.0
aF0.0
aF1085.7083202839563
aF0.0
aF983.9357429718871
aF798.1755986316987
aF0.0
aF0.0
asS'Firmicutes__Clostridia__Oscillospirales__Oscillospiraceae__Oscillibacter__uncultured_bacterium__ASV846'
p521
(lp522
F0.0
aF307.004078768475
aF1048.9312241310852
aF1190.9942511623635
aF515.2939236540517
aF0.0
aF0.0
aF1239.026704979837
aF0.0
aF1201.2667904335522
aF2535.481277635199
aF0.0
aF0.0
aF0.0
aF0.0
aF0.0
aF666.2225183211197
aF0.0
aF0.0
aF0.0
aF0.0
aF0.0
aF265.69246097642036
asS'Firmicutes__Clostridia__Clostridia_vadinBB60_group__Clostridia_vadinBB60_group__Clostridia_vadinBB60_group__unidentified__ASV394'
p523
(lp524
F3419.5828108970736
aF0.0
aF0.0
aF1923.9137903392057
aF0.0
aF239.72453471647069
aF2929.2883418865513
aF158.1736219123192
aF0.0
aF0.0
aF2442.7197674778126
aF7952.839107947281
aF0.0
aF0.0
aF0.0
aF274.30790006752204
aF0.0
aF0.0
aF234.13298753692064
aF0.0
aF0.0
aF0.0
aF0.0
asS'Bacteroidota__Bacteroidia__Bacteroidales__Muribaculaceae__Muribaculaceae__uncultured_bacterium__ASV397'
p525
(lp526
F54986.89159922488
aF20459.628963641906
aF16074.162272495356
aF23476.32898925813
aF26115.096050787364
aF4598.352438652306
aF476.8608928652531
aF3295.2837898399875
aF2195.36628514185
aF11958.06486840666
aF92.76151015738533
aF45436.85000834211
aF8862.761481304653
aF29852.826402051483
aF373.5080898456735
aF1012.8291694800802
aF9373.06163706954
aF0.0
aF4340.465384338307
aF0.0
aF114.02508551881438
aF36687.530091478126
aF29270.452784235607
asS'Bacteroidota__Bacteroidia__Bacteroidales__Rikenellaceae__Alistipes__uncultured_bacterium__ASV326'
p527
(lp528
F53277.10019377633
aF723.6524713828339
aF29029.880365141424
aF18345.892215020256
aF288.56459724626905
aF32646.123000479474
aF227.0766156501207
aF158.1736219123192
aF0.0
aF928.2516107895595
aF0.0
aF83671.65341193482
aF298.4094774850051
aF696.8446872561045
aF237.6869662654282
aF274.30790006752204
aF252.70509315628684
aF250.54807391168129
aF126.07160867372635
aF220.88353413654647
aF114.02508551881438
aF9195.955705344251
aF9188.530942101183
asS'Firmicutes__Clostridia__Peptococcales__Peptococcaceae__uncultured__NA__ASV621'
p529
(lp530
F0.0
aF285.0752159992985
aF1133.9797017633348
aF0.0
aF618.3527083848626
aF0.0
aF0.0
aF0.0
aF511.54165867382795
aF0.0
aF742.0920812590824
aF0.0
aF0.0
aF0.0
aF628.1726965586323
aF253.20729237002004
aF0.0
aF0.0
aF0.0
aF0.0
aF323.07107563664005
aF0.0
aF0.0
asS'Firmicutes__Bacilli__RF39__RF39__RF39__unidentified__ASV17'
p531
(lp532
F0.0
aF109.64431384588413
aF340.1939105290014
aF0.0
aF123.67054167697272
aF0.0
aF0.0
aF0.0
aF0.0
aF0.0
aF1422.3431557465763
aF0.0
aF0.0
aF0.0
aF0.0
aF274.30790006752204
aF2159.479886971907
aF0.0
aF0.0
aF0.0
aF0.0
aF0.0
aF398.53869146463006
asS'Firmicutes__Clostridia__Oscillospirales__Oscillospiraceae__uncultured__NA__ASV103'
p533
(lp534
F410.34993730764825
aF219.28862769176826
aF2353.007881158929
aF0.0
aF1009.9760903619456
aF784.5530227084512
aF2452.427449021297
aF949.0417314739152
aF1129.6544962380399
aF0.0
aF1051.2971151170386
aF1779.6563038763104
aF5699.621019963592
aF2369.2719366707547
aF0.0
aF1244.9358541526003
aF987.8471823382117
aF187.91105543376094
aF0.0
aF0.0
aF1805.397187381221
aF240.73182474723194
aF287.8334993911213
asS'Bacteroidota__Bacteroidia__Bacteroidales__Muribaculaceae__Muribaculaceae__NA__ASV810'
p535
(lp536
F6178.046278354042
aF8618.043068286477
aF28151.04609627484
aF5703.030164219779
aF8945.502514634343
aF5426.491740400116
aF1044.5524319905533
aF10755.806290037683
aF2813.47912270606
aF31014.52440755707
aF0.0
aF0.0
aF0.0
aF0.0
aF0.0
aF0.0
aF0.0
aF0.0
aF3385.9232043800894
aF0.0
aF0.0
aF37433.79874819453
aF4406.06664452563
asS'Firmicutes__Clostridia__Lachnospirales__Lachnospiraceae__uncultured__uncultured_bacterium__ASV1275'
p537
(lp538
F0.0
aF0.0
aF0.0
aF0.0
aF0.0
aF0.0
aF0.0
aF500.88313605567726
aF0.0
aF0.0
aF0.0
aF0.0
aF0.0
aF0.0
aF339.5528089506122
aF0.0
aF2205.4262675457785
aF0.0
aF594.3375837475686
aF0.0
aF0.0
aF0.0
aF177.12830731761355
asS'Firmicutes__Clostridia__Clostridia_vadinBB60_group__Clostridia_vadinBB60_group__Clostridia_vadinBB60_group__NA__ASV1181'
p539
(lp540
F0.0
aF0.0
aF255.1454328967508
aF0.0
aF0.0
aF174.3451161574336
aF1952.858894591034
aF0.0
aF170.513886224609
aF682.5379491099699
aF185.52302031477086
aF0.0
aF0.0
aF0.0
aF0.0
aF0.0
aF114.86595143467558
aF167.0320492744542
aF0.0
aF0.0
aF0.0
aF0.0
aF0.0
asS'Firmicutes__Clostridia__Lachnospirales__Lachnospiraceae__uncultured__uncultured_bacterium__ASV13'
p541
(lp542
F0.0
aF0.0
aF0.0
aF0.0
aF0.0
aF893.5187203068467
aF1521.4133248558073
aF1449.9248675295885
aF703.369780676514
aF0.0
aF0.0
aF0.0
aF0.0
aF0.0
aF1663.8087638579943
aF0.0
aF0.0
aF981.3132894874193
aF630.3580433686337
aF0.0
aF0.0
aF0.0
aF0.0
asS'Firmicutes__Clostridia__Lachnospirales__Lachnospiraceae__uncultured__Clostridium_sp___ASV590'
p543
(lp544
F0.0
aF0.0
aF0.0
aF0.0
aF0.0
aF0.0
aF0.0
aF0.0
aF234.456593558838
aF191.1106257507917
aF0.0
aF166.84277848840404
aF328.25042523350515
aF0.0
aF237.6869662654282
aF0.0
aF0.0
aF0.0
aF72.04091924212949
aF0.0
aF114.02508551881438
aF0.0
aF88.56415365880659
asS'Firmicutes__Clostridia__Oscillospirales__Oscillospiraceae__uncultured__uncultured_bacterium__ASV460'
p545
(lp546
F0.0
aF0.0
aF963.8827464988376
aF1236.8017223609186
aF0.0
aF0.0
aF5790.453699078065
aF1080.8530830675109
aF0.0
aF0.0
aF2257.1967471630383
aF973.2495411823593
aF1163.7969621915204
aF0.0
aF0.0
aF0.0
aF643.249328034185
aF0.0
aF0.0
aF0.0
aF0.0
aF0.0
aF0.0
asS'Bacteroidota__Bacteroidia__Bacteroidales__Muribaculaceae__Muribaculaceae__uncultured_bacterium__ASV936'
p547
(lp548
F182.37774991451033
aF131.57317661506053
aF0.0
aF0.0
aF226.72932640778265
aF65.3794185590376
aF0.0
aF0.0
aF0.0
aF136.5075898219938
aF0.0
aF194.64990823647204
aF0.0
aF0.0
aF186.75404492283621
aF105.50303848750802
aF0.0
aF187.91105543376094
aF0.0
aF0.0
aF418.0919802356524
aF144.43909484833875
aF0.0
asS'Firmicutes__Clostridia__Lachnospirales__Lachnospiraceae__NA__NA__ASV1165'
p549
(lp550
F0.0
aF0.0
aF1190.6786868515046
aF206.1336203934861
aF164.89405556929628
aF217.931395196792
aF476.8608928652531
aF0.0
aF149.199650446533
aF0.0
aF0.0
aF0.0
aF0.0
aF0.0
aF492.351572978387
aF126.60364618501002
aF0.0
aF146.15304311514743
aF126.07160867372635
aF0.0
aF95.02090459901181
aF0.0
aF243.5514225617184
asS'Firmicutes__Clostridia__Oscillospirales__Butyricicoccaceae__UCG_009__uncultured_organism__ASV836'
p551
(lp552
F0.0
aF0.0
aF0.0
aF0.0
aF0.0
aF0.0
aF840.1834779054454
aF685.4190282867163
aF0.0
aF0.0
aF0.0
aF0.0
aF0.0
aF0.0
aF679.1056179012244
aF0.0
aF0.0
aF647.24919093851
aF0.0
aF0.0
aF627.1379703534782
aF0.0
aF0.0
asS'Bacteroidota__Bacteroidia__Bacteroidales__Marinifilaceae__Odoribacter__unidentified__ASV963'
p553
(lp554
F68.39165621794137
aF153.50203938423797
aF141.74746272041733
aF68.7112067978287
aF185.50581251545907
aF0.0
aF0.0
aF0.0
aF106.571178890381
aF136.5075898219938
aF247.36402708636047
aF166.84277848840404
aF0.0
aF0.0
aF84.88820223765299
aF126.60364618501002
aF0.0
aF271.42708007098804
aF72.04091924212949
aF140.56224899598402
aF266.0585328772329
aF96.29272989889267
aF0.0
asS'Firmicutes__Clostridia__Clostridia_vadinBB60_group__Clostridia_vadinBB60_group__Clostridia_vadinBB60_group__unidentified__ASV1252'
p555
(lp556
F0.0
aF0.0
aF2097.8624482621804
aF1763.5876411442675
aF0.0
aF0.0
aF0.0
aF869.9549205177561
aF383.656244005371
aF0.0
aF2937.447821650539
aF0.0
aF0.0
aF0.0
aF526.3068538734483
aF400.91154625253205
aF0.0
aF0.0
aF270.15344715798574
aF0.0
aF266.0585328772329
aF0.0
aF0.0
asS'Firmicutes__Clostridia__Lachnospirales__Lachnospiraceae__NA__NA__ASV668'
p557
(lp558
F0.0
aF197.3597649225908
aF1559.2220899245929
aF893.2456883717731
aF247.34108335394544
aF174.3451161574336
aF0.0
aF316.3472438246384
aF319.713536671143
aF382.2212515015834
aF309.2050338579511
aF194.64990823647204
aF387.93232073050615
aF0.0
aF169.77640447530558
aF485.31397704253914
aF459.4638057387033
aF647.24919093851
aF0.0
aF120.48192771084317
aF266.0585328772329
aF0.0
aF309.9745378058232
asS'Firmicutes__Clostridia__Peptostreptococcales_Tissierellales__Anaerovoracaceae__Eubacterium_nodatum_group__uncultured_organism__ASV358'
p559
(lp560
F1299.4414681408875
aF789.4390596903643
aF340.1939105290014
aF1649.0689631478847
aF412.2351389232418
aF370.4833718345459
aF0.0
aF711.781298605437
aF490.22742289575206
aF1583.4880419351357
aF1669.7071828329347
aF862.0210221900902
aF537.1370594730092
aF1003.456349648787
aF933.7702246141832
aF1012.8291694800802
aF390.54423487789813
aF1732.9575112224632
aF828.4705712844893
aF722.89156626506
aF1026.2257696693293
aF168.51227732306256
aF531.3849219528397
asS'Firmicutes__Clostridia__Lachnospirales__Lachnospiraceae__Acetatifactor__NA__ASV6'
p561
(lp562
F0.0
aF0.0
aF0.0
aF229.03735599276266
aF0.0
aF370.4833718345459
aF90.83064626004817
aF0.0
aF0.0
aF0.0
aF0.0
aF389.2998164729441
aF566.9780072215092
aF613.2233247853718
aF933.7702246141832
aF358.71033085752913
aF0.0
aF438.45912934544225
aF342.1943664001149
aF140.56224899598402
aF0.0
aF0.0
aF0.0
asS'Firmicutes__Clostridia__Lachnospirales__Lachnospiraceae__Roseburia__NA__ASV866'
p563
(lp564
F0.0
aF0.0
aF0.0
aF0.0
aF0.0
aF0.0
aF0.0
aF184.5358922310389
aF0.0
aF0.0
aF92.76151015738533
aF139.03564874033702
aF0.0
aF0.0
aF288.6198876080202
aF0.0
aF0.0
aF104.39503079653386
aF0.0
aF120.48192771084317
aF133.02926643861645
aF0.0
aF0.0
asS'Bacteroidota__Bacteroidia__Bacteroidales__Marinifilaceae__Odoribacter__uncultured_bacterium__ASV1016'
p565
(lp566
F14202.667274592512
aF7784.746283057755
aF170.09695526450022
aF11177.022972446752
aF4617.033555940308
aF566.6216275116592
aF113.53830782505985
aF9305.881422508113
aF10252.1474092546
aF14142.186305558536
aF10080.084103769192
aF18213.669984984204
aF238.7275819880041
aF696.8446872561045
aF0.0
aF0.0
aF114.86595143467558
aF15575.738594842875
aF14912.470283120841
aF0.0
aF19099.20182440141
aF505.5368319691867
aF376.39765304992807
asS'Firmicutes__Clostridia__Lachnospirales__Lachnospiraceae__Lachnospiraceae_NK4A136_group__NA__ASV1188'
p567
(lp568
F4627.835404080698
aF1381.5183544581378
aF1729.3190451890919
aF0.0
aF288.56459724626905
aF2636.9698818811826
aF0.0
aF2715.313842828148
aF5264.61623718482
aF0.0
aF0.0
aF5561.425949613481
aF8922.443376801652
aF9031.107146839111
aF169.77640447530558
aF3249.493585415261
aF643.249328034185
aF3904.374151790366
aF1746.9922916216399
aF702.811244979919
aF2223.4891676168804
aF0.0
aF0.0
asS'Firmicutes__Clostridia__Lachnospirales__Lachnospiraceae__Blautia__Lachnospiraceae_bacterium__ASV1210'
p569
(lp570
F501.5388122649034
aF131.57317661506053
aF0.0
aF778.7270103753923
aF0.0
aF348.6902323148672
aF1544.120986420816
aF738.1435689241566
aF1044.39755312573
aF1255.8698263623442
aF0.0
aF611.7568544574832
aF537.1370594730092
aF306.6116623926864
aF1052.613707746901
aF801.8230925050641
aF275.6782834432216
aF334.0640985489084
aF432.24551545277717
aF140.56224899598402
aF684.1505131128853
aF120.36591237361597
aF0.0
asS'Firmicutes__Clostridia__Oscillospirales__Oscillospiraceae__Intestinimonas__NA__ASV489'
p571
(lp572
F273.5666248717655
aF0.0
aF0.0
aF0.0
aF0.0
aF370.4833718345459
aF0.0
aF1212.6644346611142
aF532.855894451904
aF0.0
aF0.0
aF945.4424114342922
aF895.2284324550153
aF557.4757498048837
aF865.8596628240606
aF907.3261309925732
aF0.0
aF0.0
aF0.0
aF0.0
aF380.08361839604726
aF0.0
aF0.0
asS'Firmicutes__Clostridia__Lachnospirales__Lachnospiraceae__Roseburia__uncultured_bacterium__ASV300'
p573
(lp574
F0.0
aF0.0
aF0.0
aF0.0
aF0.0
aF392.2765113542256
aF0.0
aF0.0
aF575.484366008057
aF0.0
aF0.0
aF0.0
aF626.6599027185102
aF278.73787490244183
aF543.2844943209791
aF633.0182309250511
aF0.0
aF1210.9823572397888
aF216.12275772638858
aF0.0
aF589.129608513873
aF96.29272989889267
aF0.0
asS'Firmicutes__Clostridia__Oscillospirales__Ruminococcaceae__uncultured__NA__ASV1391'
p575
(lp576
F0.0
aF0.0
aF907.1837614106709
aF137.4224135956574
aF0.0
aF305.1039532755088
aF0.0
aF1792.6343816729536
aF0.0
aF273.0151796439886
aF0.0
aF722.9853734497532
aF596.8189549700102
aF696.8446872561045
aF1884.518089675893
aF3819.209993247811
aF0.0
aF5658.210669172142
aF1296.7365463583335
aF1485.9437751004057
aF0.0
aF649.9759268175255
aF0.0
asS'Firmicutes__Clostridia__Lachnospirales__Lachnospiraceae__Roseburia__Clostridium_sp___ASV673'
p577
(lp578
F0.0
aF0.0
aF0.0
aF0.0
aF0.0
aF130.7588371180752
aF0.0
aF237.26043286847928
aF0.0
aF0.0
aF0.0
aF0.0
aF119.36379099400204
aF0.0
aF628.1726965586323
aF400.91154625253205
aF137.83914172161127
aF730.7652155757381
aF162.09206829479146
aF160.64257028112488
aF0.0
aF0.0
aF0.0
asS'Firmicutes__Bacilli__Erysipelotrichales__Erysipelotrichaceae__Dubosiella__uncultured_bacterium__ASV624'
p579
(lp580
F3921.1216231619765
aF4846.2786719880705
aF1304.0766570278338
aF2015.5287327363058
aF4926.209910132735
aF7692.978250446751
aF3338.026250056769
aF5430.627685656296
aF4625.1891638425295
aF5159.986895271381
aF2690.0837945641706
aF0.0
aF3342.186147832061
aF4181.068123536627
aF2648.511909814773
aF1962.3565158676604
aF2389.2117898412544
aF6305.459860110649
aF6951.948706865499
aF9698.79518072289
aF4427.974154313953
aF7847.857486759753
aF8236.466290269018
asS'Firmicutes__Bacilli__RF39__RF39__RF39__uncultured_bacterium__ASV134'
p581
(lp582
F0.0
aF109.64431384588413
aF0.0
aF0.0
aF5420.892076840626
aF0.0
aF0.0
aF0.0
aF42.6284715561524
aF0.0
aF0.0
aF0.0
aF0.0
aF0.0
aF50.93292134259177
aF0.0
aF0.0
aF0.0
aF36.020459621064795
aF120.48192771084317
aF0.0
aF0.0
aF0.0
asS'Actinobacteriota__Coriobacteriia__Coriobacteriales__Eggerthellaceae__Enterorhabdus__NA__ASV425'
p583
(lp584
F0.0
aF0.0
aF0.0
aF458.07471198552435
aF0.0
aF806.34616222813
aF1089.967755120581
aF632.6944876492768
aF362.342008227295
aF627.934913181173
aF0.0
aF0.0
aF0.0
aF0.0
aF0.0
aF400.91154625253205
aF0.0
aF0.0
aF954.5421799582166
aF0.0
aF323.07107563664005
aF168.51227732306256
aF509.24388353813777
asS'Firmicutes__Clostridia__Oscillospirales__Ruminococcaceae__uncultured__NA__ASV218'
p585
(lp586
F410.34993730764825
aF0.0
aF396.89289561716816
aF0.0
aF164.89405556929628
aF414.0696508739043
aF340.6149234751805
aF579.9699470118373
aF1214.9114393503398
aF109.20607185759484
aF123.68201354318023
aF333.68555697680904
aF1342.8426486825203
aF1756.0486118853796
aF713.0608987962856
aF464.2133693450371
aF344.5978543040277
aF438.45912934544225
aF198.11252791585653
aF120.48192771084317
aF760.1672367920945
aF0.0
aF0.0
asS'Bacteroidota__Bacteroidia__Bacteroidales__Muribaculaceae__Muribaculaceae__uncultured_bacterium__ASV563'
p587
(lp588
F0.0
aF0.0
aF0.0
aF0.0
aF0.0
aF6232.837902628248
aF8311.004132794398
aF2952.5742756966224
aF1662.51039068994
aF9855.847985147975
aF0.0
aF0.0
aF0.0
aF0.0
aF0.0
aF0.0
aF0.0
aF0.0
aF1152.6547078740732
aF0.0
aF0.0
aF553.6831969186333
aF2346.9500719583784
asS'Firmicutes__Clostridia__Lachnospirales__Lachnospiraceae__Tuzzerella__uncultured_bacterium__ASV830'
p589
(lp590
F455.94437478627583
aF745.5813341520104
aF935.5332539547537
aF1122.2830443645357
aF226.72932640778265
aF1089.656975983955
aF3587.8105272719054
aF1739.9098410355082
aF1598.5676833557102
aF791.7440209675657
aF2535.481277635199
aF1223.5137089149703
aF2118.707290143541
aF2425.0195116512477
aF0.0
aF801.8230925050641
aF1608.12332008546
aF1983.5055851341483
aF450.2557452633093
aF261.0441767068272
aF2546.5602432535143
aF120.36591237361597
aF177.12830731761355
asS'Campilobacterota__Campylobacteria__Campylobacterales__Helicobacteraceae__Helicobacter__uncultured_Helicobacter__ASV741'
p591
(lp592
F0.0
aF109.64431384588413
aF113.39797017633347
aF160.32614919493398
aF144.28229862313452
aF108.9656975983955
aF0.0
aF158.1736219123192
aF127.88541466845699
aF327.6182155727855
aF0.0
aF528.335465213281
aF0.0
aF0.0
aF152.79876402777592
aF189.90546927751504
aF0.0
aF167.0320492744542
aF180.1022981053235
aF200.80321285140562
aF0.0
aF433.31728454501734
aF0.0
asS'Bacteroidota__Bacteroidia__Bacteroidales__Muribaculaceae__Muribaculaceae__uncultured_Bacteroidales__ASV539'
p593
(lp594
F0.0
aF0.0
aF0.0
aF0.0
aF0.0
aF4794.490694329424
aF1566.828647985835
aF4929.744549600615
aF5435.13012340942
aF12121.873976193045
aF0.0
aF0.0
aF0.0
aF0.0
aF0.0
aF0.0
aF0.0
aF146.15304311514743
aF1819.03321086377
aF0.0
aF171.03762827822158
aF17790.08184882044
aF5402.4133731872025
asS'Firmicutes__Clostridia__Lachnospirales__Lachnospiraceae__uncultured__uncultured_bacterium__ASV1'
p595
(lp596
F319.1610623503931
aF0.0
aF340.1939105290014
aF229.03735599276266
aF0.0
aF0.0
aF0.0
aF0.0
aF0.0
aF0.0
aF0.0
aF1167.8994494188303
aF0.0
aF780.4660497268374
aF1358.2112358024526
aF0.0
aF0.0
aF0.0
aF0.0
aF0.0
aF0.0
aF0.0
aF0.0
asS'Bacteroidota__Bacteroidia__Bacteroidales__Muribaculaceae__Muribaculaceae__NA__ASV1353'
p597
(lp598
F0.0
aF0.0
aF0.0
aF0.0
aF0.0
aF0.0
aF0.0
aF0.0
aF0.0
aF873.6485748607616
aF0.0
aF0.0
aF10086.240338993202
aF12989.184970453778
aF22512.351233425572
aF0.0
aF987.8471823382117
aF0.0
aF882.5012607160863
aF0.0
aF0.0
aF1372.1714010592184
aF4162.515221963912
asS'Firmicutes__Clostridia__Clostridia_vadinBB60_group__Clostridia_vadinBB60_group__Clostridia_vadinBB60_group__uncultured_bacterium__ASV458'
p599
(lp600
F0.0
aF328.93294153765135
aF3005.046209672846
aF2267.469824328344
aF0.0
aF0.0
aF0.0
aF685.4190282867163
aF0.0
aF2620.945724582282
aF1113.1381218886231
aF0.0
aF0.0
aF0.0
aF0.0
aF1877.9540850776505
aF0.0
aF2004.3845912934523
aF0.0
aF1285.1405622489972
aF0.0
aF0.0
aF0.0
asS'Firmicutes__Clostridia__Oscillospirales__Oscillospiraceae__Colidextribacter__NA__ASV914'
p601
(lp602
F433.14715604696255
aF0.0
aF1048.9312241310852
aF435.17097638624875
aF0.0
aF435.862790393584
aF3542.395204141878
aF579.9699470118373
aF0.0
aF1310.472862291146
aF1051.2971151170386
aF1640.6206551359803
aF656.5008504670112
aF529.6019623146391
aF865.8596628240606
aF675.2194463200541
aF0.0
aF1586.8044681073168
aF396.2250558317121
aF321.2851405622488
aF399.08779931584934
aF0.0
aF243.5514225617184
asS'Firmicutes__Clostridia__Lachnospirales__Lachnospiraceae__GCA_900066575__uncultured_bacterium__ASV99'
p603
(lp604
F273.5666248717655
aF0.0
aF0.0
aF0.0
aF0.0
aF348.6902323148672
aF363.3225850401923
aF869.9549205177561
aF447.5989513396
aF0.0
aF1174.9791286602176
aF1835.2705633724504
aF1044.4331711975203
aF585.3495372951282
aF831.9043819289992
aF0.0
aF0.0
aF730.7652155757381
aF0.0
aF180.72289156626474
aF532.1170657544658
aF0.0
aF0.0
asS'Firmicutes__Bacilli__Erysipelotrichales__Erysipelotrichaceae__Ileibacterium__Ileibacterium_valens__ASV1343'
p605
(lp606
F63832.21247007862
aF99557.0369720626
aF14174.746272041735
aF39692.17379354574
aF70760.16159617444
aF18720.306847404445
aF10468.231981470582
aF24464.186855772085
aF4603.87492806445
aF25144.698045211262
aF2844.6863114931525
aF12457.594127134202
aF7340.873146131123
aF22048.16590478314
aF3989.7455051696948
aF4810.938555030391
aF14978.520067081685
aF104.39503079653386
aF14588.28614653119
aF120.48192771084317
aF95.02090459901181
aF14660.568127106366
aF21476.807262260576
asS'Firmicutes__Clostridia__Lachnospirales__Lachnospiraceae__Lachnospiraceae_FCS020_group__NA__ASV268'
p607
(lp608
F0.0
aF175.4309021534144
aF141.74746272041733
aF343.5560339891435
aF0.0
aF0.0
aF0.0
aF0.0
aF0.0
aF0.0
aF154.60251692897555
aF361.4926867248761
aF0.0
aF0.0
aF0.0
aF485.31397704253914
aF0.0
aF0.0
aF0.0
aF0.0
aF0.0
aF0.0
aF0.0
assS'subclass_sl'
p609
(dp610
g10
(I11
I23
tp611
sg12
(I0
I11
tp612
ssS'norm'
p613
F1000000.0
sS'cls'
p614
(dp615
S'class'
p616
(S'30'
p617
S'30'
p618
S'30'
p619
S'30'
p620
S'30'
p621
S'30'
p622
S'30'
p623
S'30'
p624
S'30'
p625
S'30'
p626
g5
S'60'
p627
S'60'
p628
S'60'
p629
S'60'
p630
S'60'
p631
S'60'
p632
S'60'
p633
S'60'
p634
S'60'
p635
S'60'
p636
S'60'
p637
g3
tp638
sS'subclass'
p639
(lp640
S'30_subcl'
p641
aS'30_subcl'
p642
aS'30_subcl'
p643
aS'30_subcl'
p644
aS'30_subcl'
p645
aS'30_subcl'
p646
aS'30_subcl'
p647
aS'30_subcl'
p648
aS'30_subcl'
p649
aS'30_subcl'
p650
ag12
aS'60_subcl'
p651
aS'60_subcl'
p652
aS'60_subcl'
p653
aS'60_subcl'
p654
aS'60_subcl'
p655
aS'60_subcl'
p656
aS'60_subcl'
p657
aS'60_subcl'
p658
aS'60_subcl'
p659
aS'60_subcl'
p660
aS'60_subcl'
p661
ag10
asS'subject'
p662
(S'X17766'
p663
S'X17832'
p664
S'X17844'
p665
S'X17874'
p666
S'X17900'
p667
S'X17935'
p668
S'X17938'
p669
S'X17954'
p670
S'X17973'
p671
S'X17994'
p672
S'X18004'
p673
S'X17769'
p674
S'X17794'
p675
S'X17795'
p676
S'X17796'
p677
S'X17859'
p678
S'X17864'
p679
S'X17948'
p680
S'X17957'
p681
S'X17964'
p682
S'X17972'
p683
S'X17996'
p684
S'X18014'
p685
tp686
ss.